                        HH        HH  EEEEEEEEEEEE  RRRRRRRRRRR    CCCCCCCCCC     00000000         11        AAAAAAAAAA
                       HH        HH  EEEEEEEEEEEE  RRRRRRRRRRRR  CCCCCCCCCCCC   0000000000       111       AAAAAAAAAAAA
                      HH        HH  EE            RR        RR  CC        CC  00      0000     1111       AA        AA
                     HH        HH  EE            RR        RR  CC            00     00 00       11       AA        AA
                    HH        HH  EE            RR        RR  CC            00    00  00       11       AA        AA
                   HHHHHHHHHHHH  EEEEEEEE      RRRRRRRRRRRR  CC            00   00   00       11       AAAAAAAAAAAA
                  HHHHHHHHHHHH  EEEEEEEE      RRRRRRRRRRR   CC            00  00    00       11       AAAAAAAAAAAA
                 HH        HH  EE            RR    RR      CC            00 00     00       11       AA        AA
                HH        HH  EE            RR     RR     CC            0000      00       11       AA        AA
               HH        HH  EE            RR      RR    CC        CC  000       00       11       AA        AA
              HH        HH  EEEEEEEEEEEE  RR       RR   CCCCCCCCCCCC   0000000000    1111111111   AA        AA
             HH        HH  EEEEEEEEEEEE  RR        RR   CCCCCCCCCC     00000000     1111111111   AA        AA



                    JJJJJJJJJJ       11         00000000     3333333333    2222222222                  AAAAAAAAAA
                    JJJJJJJJJJ      111        0000000000   333333333333  222222222222                AAAAAAAAAAAA
                        JJ         1111       00      0000  33        33  22        22                AA        AA
                        JJ           11       00     00 00            33            22                AA        AA
                        JJ           11       00    00  00            33            22                AA        AA
                        JJ           11       00   00   00         3333            22                 AAAAAAAAAAAA
                        JJ           11       00  00    00         3333          22                   AAAAAAAAAAAA
                        JJ           11       00 00     00            33       22                     AA        AA
                  JJ    JJ           11       0000      00            33     22                       AA        AA
                  JJ    JJ           11       000       00  33        33   22                         AA        AA
                  JJJJJJJJ       1111111111    0000000000   333333333333  222222222222                AA        AA
                   JJJJJJ        1111111111     00000000     3333333333   222222222222                AA        AA


****A  START  JOB 1032  HERC01A   ME                    ROOM        9.51.30 PM 12 MAR 22  PRINTER1  SYS TK4-  JOB 1032  START  A****
****A  START  JOB 1032  HERC01A   ME                    ROOM        9.51.30 PM 12 MAR 22  PRINTER1  SYS TK4-  JOB 1032  START  A****
****A  START  JOB 1032  HERC01A   ME                    ROOM        9.51.30 PM 12 MAR 22  PRINTER1  SYS TK4-  JOB 1032  START  A****
****A  START  JOB 1032  HERC01A   ME                    ROOM        9.51.30 PM 12 MAR 22  PRINTER1  SYS TK4-  JOB 1032  START  A****
                                                J E S 2   J O B   L O G


21.51.29 JOB 1032  IEF677I WARNING MESSAGE(S) FOR JOB HERC01A  ISSUED
21.51.29 JOB 1032  $HASP373 HERC01A  STARTED - INIT  1 - CLASS A - SYS TK4-
21.51.29 JOB 1032  IEF403I HERC01A - STARTED - TIME=21.51.29
21.51.29 JOB 1032  IEFACTRT - Stepname  Procstep  Program   Retcode
21.51.29 JOB 1032  HERC01A    S1        ASM       IFOX00    RC= 0000
21.51.29 JOB 1032  HERC01A    S1        LKED      IEWL      RC= 0000
21.51.30 JOB 1032  HERC01A    S2        ASM       IFOX00    RC= 0000
21.51.30 JOB 1032  HERC01A    S2        LKED      IEWL      RC= 0000
21.51.30 JOB 1032  IEF404I HERC01A - ENDED - TIME=21.51.30
21.51.30 JOB 1032  $HASP395 HERC01A  ENDED


------ JES2 JOB STATISTICS ------


 12 MAR 22 JOB EXECUTION DATE


     1,110 CARDS READ


     2,640 SYSOUT PRINT RECORDS


        78 SYSOUT PUNCH RECORDS


      0.01 MINUTES EXECUTION TIME
    1     //HERC01A JOB 0,'ME',MSGCLASS=A,MSGLEVEL=(1,1),                         JOB 1032
          //  USER=HERC01,PASSWORD=
    2     //S1  EXEC ASMFCL
    3     XXASMFCL   PROC MAC='SYS1.MACLIB',MAC1='SYS1.MACLIB',                   00000100
          XX         MAC2='SYS1.MACLIB',MAC3='SYS1.MACLIB',SOUT='*'               00000200
    4     XXASM      EXEC PGM=IFOX00,PARM=OBJ,REGION=128K                         00000300
    5     XXSYSLIB   DD   DSN=&MAC,DISP=SHR                                       00000400
    6     XX         DD   DSN=&MAC1,DISP=SHR                                      00000500
    7     XX         DD   DSN=&MAC2,DISP=SHR                                      00000600
    8     XX         DD   DSN=&MAC3,DISP=SHR                                      00000700
    9     XXSYSUT1   DD   DSN=&&SYSUT1,UNIT=SYSSQ,SPACE=(1700,(600,100)),         00000800
          XX             SEP=(SYSLIB)                                             00000900
   10     XXSYSUT2   DD   DSN=&&SYSUT2,UNIT=SYSSQ,SPACE=(1700,(300,50)),          00001000
          XX             SEP=(SYSLIB,SYSUT1)                                      00001100
   11     XXSYSUT3   DD   DSN=&&SYSUT3,UNIT=SYSSQ,SPACE=(1700,(300,50))           00001200
   12     XXSYSPRINT DD   SYSOUT=&SOUT,DCB=BLKSIZE=1089                           00001300
   13     XXSYSPUNCH DD   SYSOUT=B                                                00001400
   14     XXSYSGO    DD   DSN=&&OBJSET,UNIT=SYSSQ,SPACE=(80,(200,50)),            00001500
          XX             DISP=(MOD,PASS)                                          00001600
   15     //ASM.SYSIN DD *
   16     XXLKED     EXEC PGM=IEWL,PARM=(XREF,LET,LIST,NCAL),REGION=128K,         00001700
          XX             COND=(8,LT,ASM)                                          00001800
   17     XXSYSLIN   DD   DSN=&&OBJSET,DISP=(OLD,DELETE)                          00001900
   18     XX         DD   DDNAME=SYSIN                                            00002000
   19     //LKED.SYSLMOD DD DSN=SYS2.LINKLIB,DISP=SHR,SPACE=
          X/SYSLMOD  DD   DSN=&&GOSET(GO),UNIT=SYSDA,SPACE=(1024,(50,20,1)),      00002100
          XX             DISP=(MOD,PASS)                                          00002200
   20     XXSYSUT1   DD   DSN=&&SYSUT1,UNIT=(SYSDA,SEP=(SYSLIN,SYSLMOD)),         00002300
          XX             SPACE=(1024,(50,20))                                     00002400
   21     XXSYSPRINT DD   SYSOUT=&SOUT                                            00002500
   22     //LKED.SYSIN DD *
          ***
   23     //S2  EXEC ASMFCL,PARM.LKED='XREF,LET,LIST'
   24     XXASMFCL   PROC MAC='SYS1.MACLIB',MAC1='SYS1.MACLIB',                   00000100
          XX         MAC2='SYS1.MACLIB',MAC3='SYS1.MACLIB',SOUT='*'               00000200
   25     XXASM      EXEC PGM=IFOX00,PARM=OBJ,REGION=128K                         00000300
   26     XXSYSLIB   DD   DSN=&MAC,DISP=SHR                                       00000400
   27     XX         DD   DSN=&MAC1,DISP=SHR                                      00000500
   28     XX         DD   DSN=&MAC2,DISP=SHR                                      00000600
   29     XX         DD   DSN=&MAC3,DISP=SHR                                      00000700
   30     XXSYSUT1   DD   DSN=&&SYSUT1,UNIT=SYSSQ,SPACE=(1700,(600,100)),         00000800
          XX             SEP=(SYSLIB)                                             00000900
   31     XXSYSUT2   DD   DSN=&&SYSUT2,UNIT=SYSSQ,SPACE=(1700,(300,50)),          00001000
          XX             SEP=(SYSLIB,SYSUT1)                                      00001100
   32     XXSYSUT3   DD   DSN=&&SYSUT3,UNIT=SYSSQ,SPACE=(1700,(300,50))           00001200
   33     XXSYSPRINT DD   SYSOUT=&SOUT,DCB=BLKSIZE=1089                           00001300
   34     XXSYSPUNCH DD   SYSOUT=B                                                00001400
   35     XXSYSGO    DD   DSN=&&OBJSET,UNIT=SYSSQ,SPACE=(80,(200,50)),            00001500
          XX             DISP=(MOD,PASS)                                          00001600
   36     //ASM.SYSIN DD *
   37     XXLKED     EXEC PGM=IEWL,PARM=(XREF,LET,LIST,NCAL),REGION=128K,         00001700
          XX             COND=(8,LT,ASM)                                          00001800
   38     XXSYSLIN   DD   DSN=&&OBJSET,DISP=(OLD,DELETE)                          00001900
   39     XX         DD   DDNAME=SYSIN                                            00002000
   40     //LKED.SYSLMOD DD DSN=SYS2.LINKLIB(FILEDUMP),DISP=SHR
          X/SYSLMOD  DD   DSN=&&GOSET(GO),UNIT=SYSDA,SPACE=(1024,(50,20,1)),      00002100
          XX             DISP=(MOD,PASS)                                          00002200
   41     XXSYSUT1   DD   DSN=&&SYSUT1,UNIT=(SYSDA,SEP=(SYSLIN,SYSLMOD)),         00002300
          XX             SPACE=(1024,(50,20))                                     00002400
   42     XXSYSPRINT DD   SYSOUT=&SOUT                                            00002500
   43     //LKED.SYSLIB DD DSN=SYS2.LINKLIB,DISP=SHR
 STMT NO. MESSAGE
-
    5     IEF653I SUBSTITUTION JCL - DSN=SYS1.MACLIB,DISP=SHR
    6     IEF653I SUBSTITUTION JCL - DSN=SYS1.MACLIB,DISP=SHR
    7     IEF653I SUBSTITUTION JCL - DSN=SYS1.MACLIB,DISP=SHR
    8     IEF653I SUBSTITUTION JCL - DSN=SYS1.MACLIB,DISP=SHR
   12     IEF653I SUBSTITUTION JCL - SYSOUT=*,DCB=BLKSIZE=1089
   21     IEF653I SUBSTITUTION JCL - SYSOUT=*
   26     IEF653I SUBSTITUTION JCL - DSN=SYS1.MACLIB,DISP=SHR
   27     IEF653I SUBSTITUTION JCL - DSN=SYS1.MACLIB,DISP=SHR
   28     IEF653I SUBSTITUTION JCL - DSN=SYS1.MACLIB,DISP=SHR
   29     IEF653I SUBSTITUTION JCL - DSN=SYS1.MACLIB,DISP=SHR
   33     IEF653I SUBSTITUTION JCL - SYSOUT=*,DCB=BLKSIZE=1089
   42     IEF653I SUBSTITUTION JCL - SYSOUT=*
   43     IEF686I DDNAME REFERRED TO ON DDNAME KEYWORD IN PRIOR STEP WAS NOT RESOLVED
IEF236I ALLOC. FOR HERC01A ASM S1
IEF237I 148  ALLOCATED TO SYSLIB
IEF237I 148  ALLOCATED TO
IEF237I 148  ALLOCATED TO
IEF237I 148  ALLOCATED TO
IEF237I 190  ALLOCATED TO SYSUT1
IEF237I 170  ALLOCATED TO SYSUT2
IEF237I 140  ALLOCATED TO SYSUT3
IEF237I JES2 ALLOCATED TO SYSPRINT
IEF237I JES2 ALLOCATED TO SYSPUNCH
IEF237I 180  ALLOCATED TO SYSGO
IEF237I JES2 ALLOCATED TO SYSIN
IEF142I HERC01A ASM S1 - STEP WAS EXECUTED - COND CODE 0000
IEF285I   SYS1.MACLIB                                  KEPT          *-------13
IEF285I   VOL SER NOS= MVSRES.
IEF285I   SYS1.MACLIB                                  KEPT          *--------0
IEF285I   VOL SER NOS= MVSRES.
IEF285I   SYS1.MACLIB                                  KEPT          *--------0
IEF285I   VOL SER NOS= MVSRES.
IEF285I   SYS1.MACLIB                                  KEPT          *--------0
IEF285I   VOL SER NOS= MVSRES.
IEF285I   SYS22071.T215129.RA000.HERC01A.SYSUT1        DELETED       *------161
IEF285I   VOL SER NOS= WORK03.
IEF285I   SYS22071.T215129.RA000.HERC01A.SYSUT2        DELETED       *-------26
IEF285I   VOL SER NOS= WORK01.
IEF285I   SYS22071.T215129.RA000.HERC01A.SYSUT3        DELETED       *-------10
IEF285I   VOL SER NOS= WORK00.
IEF285I   JES2.JOB01032.SO0104                         SYSOUT
IEF285I   JES2.JOB01032.SO0105                         SYSOUT
IEF285I   SYS22071.T215129.RA000.HERC01A.OBJSET        PASSED        *-------28
IEF285I   VOL SER NOS= WORK02.
IEF285I   JES2.JOB01032.SI0101                         SYSIN
IEF373I STEP /ASM     / START 22071.2151
IEF374I STEP /ASM     / STOP  22071.2151 CPU    0MIN 00.12SEC SRB    0MIN 00.01SEC VIRT   128K SYS   180K
************************************************************************************************************************************
*     1. Jobstep of job: HERC01A     Stepname: ASM         Program name: IFOX00     Executed on 12.03.22 from 21.51.29 to 21.51.29 *
*         elapsed time  00:00:00,20                      CPU-Identifier:  TK4-           Page-in:      0                           *
*             CPU time  00:00:00,13               Virtual Storage used:    128K         Page-out:      0                           *
*           corr. CPU:  00:00:00,13   CPU time has been corrected by  1 / 1,0  multiplier                                          *
*                                                                                                                                  *
*     I/O Operation                                                                                                                *
*     Number of records read via DD * or DD DATA:    463                                                                           *
*     148......13 148.......0 148.......0 148.......0 190.....161 170......26 140......10 DMY.......0 DMY.......0 180......28      *
*     DMY.......0                                                                                                                  *
*                                                                                                                                  *
*                                          Charge for step (w/o SYSOUT):          0,21                                             *
************************************************************************************************************************************
IEF236I ALLOC. FOR HERC01A LKED S1
IEF237I 180  ALLOCATED TO SYSLIN
IEF237I JES2 ALLOCATED TO
IEF237I 240  ALLOCATED TO SYSLMOD
IEF237I 190  ALLOCATED TO SYSUT1
IEF237I JES2 ALLOCATED TO SYSPRINT
IEF142I HERC01A LKED S1 - STEP WAS EXECUTED - COND CODE 0000
IEF285I   SYS22071.T215129.RA000.HERC01A.OBJSET        DELETED       *-------29
IEF285I   VOL SER NOS= WORK02.
IEF285I   JES2.JOB01032.SI0102                         SYSIN
IEF285I   SYS2.LINKLIB                                 KEPT          *-------15
IEF285I   VOL SER NOS= PUB000.
IEF285I   SYS22071.T215129.RA000.HERC01A.SYSUT1        DELETED       *--------0
IEF285I   VOL SER NOS= WORK03.
IEF285I   JES2.JOB01032.SO0106                         SYSOUT
IEF373I STEP /LKED    / START 22071.2151
IEF374I STEP /LKED    / STOP  22071.2151 CPU    0MIN 00.02SEC SRB    0MIN 00.00SEC VIRT   128K SYS   180K
************************************************************************************************************************************
*     2. Jobstep of job: HERC01A     Stepname: LKED        Program name: IEWL       Executed on 12.03.22 from 21.51.29 to 21.51.29 *
*         elapsed time  00:00:00,05                      CPU-Identifier:  TK4-           Page-in:      0                           *
*             CPU time  00:00:00,02               Virtual Storage used:    128K         Page-out:      0                           *
*           corr. CPU:  00:00:00,02   CPU time has been corrected by  1 / 1,0  multiplier                                          *
*                                                                                                                                  *
*     I/O Operation                                                                                                                *
*     Number of records read via DD * or DD DATA:      2                                                                           *
*     180......29 DMY.......0 240......15 190.......0 DMY.......0                                                                  *
*                                                                                                                                  *
*                                          Charge for step (w/o SYSOUT):          0,03                                             *
************************************************************************************************************************************
IEF236I ALLOC. FOR HERC01A ASM S2
IEF237I 148  ALLOCATED TO SYSLIB
IEF237I 148  ALLOCATED TO
IEF237I 148  ALLOCATED TO
IEF237I 148  ALLOCATED TO
IEF237I 190  ALLOCATED TO SYSUT1
IEF237I 140  ALLOCATED TO SYSUT2
IEF237I 170  ALLOCATED TO SYSUT3
IEF237I JES2 ALLOCATED TO SYSPRINT
IEF237I JES2 ALLOCATED TO SYSPUNCH
IEF237I 180  ALLOCATED TO SYSGO
IEF237I JES2 ALLOCATED TO SYSIN
IEF142I HERC01A ASM S2 - STEP WAS EXECUTED - COND CODE 0000
IEF285I   SYS1.MACLIB                                  KEPT          *-------44
IEF285I   VOL SER NOS= MVSRES.
IEF285I   SYS1.MACLIB                                  KEPT          *--------0
IEF285I   VOL SER NOS= MVSRES.
IEF285I   SYS1.MACLIB                                  KEPT          *--------0
IEF285I   VOL SER NOS= MVSRES.
IEF285I   SYS1.MACLIB                                  KEPT          *--------0
IEF285I   VOL SER NOS= MVSRES.
IEF285I   SYS22071.T215129.RA000.HERC01A.SYSUT1        DELETED       *------571
IEF285I   VOL SER NOS= WORK03.
IEF285I   SYS22071.T215129.RA000.HERC01A.SYSUT2        DELETED       *-------69
IEF285I   VOL SER NOS= WORK00.
IEF285I   SYS22071.T215129.RA000.HERC01A.SYSUT3        DELETED       *-------22
IEF285I   VOL SER NOS= WORK01.
IEF285I   JES2.JOB01032.SO0107                         SYSOUT
IEF285I   JES2.JOB01032.SO0108                         SYSOUT
IEF285I   SYS22071.T215129.RA000.HERC01A.OBJSET        PASSED        *-------50
IEF285I   VOL SER NOS= WORK02.
IEF285I   JES2.JOB01032.SI0103                         SYSIN
IEF373I STEP /ASM     / START 22071.2151
IEF374I STEP /ASM     / STOP  22071.2151 CPU    0MIN 00.32SEC SRB    0MIN 00.04SEC VIRT   128K SYS   224K
************************************************************************************************************************************
*     3. Jobstep of job: HERC01A     Stepname: ASM         Program name: IFOX00     Executed on 12.03.22 from 21.51.29 to 21.51.30 *
*         elapsed time  00:00:00,49                      CPU-Identifier:  TK4-           Page-in:      0                           *
*             CPU time  00:00:00,36               Virtual Storage used:    128K         Page-out:      0                           *
*           corr. CPU:  00:00:00,36   CPU time has been corrected by  1 / 1,0  multiplier                                          *
*                                                                                                                                  *
*     I/O Operation                                                                                                                *
*     Number of records read via DD * or DD DATA:    634                                                                           *
*     148......44 148.......0 148.......0 148.......0 190.....571 140......69 170......22 DMY.......0 DMY.......0 180......50      *
*     DMY.......0                                                                                                                  *
*                                                                                                                                  *
*                                          Charge for step (w/o SYSOUT):          0,60                                             *
************************************************************************************************************************************
IEF236I ALLOC. FOR HERC01A LKED S2
IEF237I 180  ALLOCATED TO SYSLIN
IEF237I DMY  ALLOCATED TO
IEF237I 240  ALLOCATED TO SYSLMOD
IEF237I 190  ALLOCATED TO SYSUT1
IEF237I JES2 ALLOCATED TO SYSPRINT
IEF237I 240  ALLOCATED TO SYSLIB
IEF142I HERC01A LKED S2 - STEP WAS EXECUTED - COND CODE 0000
IEF285I   SYS22071.T215129.RA000.HERC01A.OBJSET        DELETED       *-------51
IEF285I   VOL SER NOS= WORK02.
IEF285I   SYS2.LINKLIB                                 KEPT          *-------70
IEF285I   VOL SER NOS= PUB000.
IEF285I   SYS22071.T215129.RA000.HERC01A.SYSUT1        DELETED       *--------0
IEF285I   VOL SER NOS= WORK03.
IEF285I   JES2.JOB01032.SO0109                         SYSOUT
IEF285I   SYS2.LINKLIB                                 KEPT          *--------7
IEF285I   VOL SER NOS= PUB000.
IEF373I STEP /LKED    / START 22071.2151
IEF374I STEP /LKED    / STOP  22071.2151 CPU    0MIN 00.03SEC SRB    0MIN 00.01SEC VIRT   132K SYS   180K
************************************************************************************************************************************
*     4. Jobstep of job: HERC01A     Stepname: LKED        Program name: IEWL       Executed on 12.03.22 from 21.51.30 to 21.51.30 *
*         elapsed time  00:00:00,08                      CPU-Identifier:  TK4-           Page-in:      0                           *
*             CPU time  00:00:00,04               Virtual Storage used:    132K         Page-out:      0                           *
*           corr. CPU:  00:00:00,04   CPU time has been corrected by  1 / 1,0  multiplier                                          *
*                                                                                                                                  *
*     I/O Operation                                                                                                                *
*     Number of records read via DD * or DD DATA:      0                                                                           *
*     180......51 DMY.......0 240......70 190.......0 DMY.......0 240.......7                                                      *
*                                                                                                                                  *
*                                          Charge for step (w/o SYSOUT):          0,06                                             *
************************************************************************************************************************************
IEF375I  JOB /HERC01A / START 22071.2151
IEF376I  JOB /HERC01A / STOP  22071.2151 CPU    0MIN 00.49SEC SRB    0MIN 00.06SEC
                                               EXTERNAL SYMBOL DICTIONARY                                      PAGE    1


SYMBOL   TYPE  ID   ADDR  LENGTH LDID                                                            ASM 0201 21.51 03/12/22

SNAPFR    SD  0001 000000 0004CA
SNAPFRP   LD       000008        0001
         SNAPFR V1.0.0 - FORMAT STORAGE AREAS FOR PRINTING                                                     PAGE    2


  LOC  OBJECT CODE    ADDR1 ADDR2  STMT   SOURCE STATEMENT                                       ASM 0201 21.51 03/12/22

                                      2 **********************************************************************
                                      3 **                                                                  **
                                      4 ** SNAPFR  V1.0.0 - FORMAT STORAGE AREAS FOR PRINING A FILE DUMP    **
                                      5 **                                                                  **
                                      6 **             COPYRIGHT (C) 2022  EDWARD G LISS                    **
                                      7 **                     EGLISS4024@GMAIL.COM                         **
                                      8 **                                                                  **
                                      9 ** THIS PROGRAM IS FREE SOFTWARE: YOU CAN REDISTRIBUTE IT           **
                                     10 ** AND/OR MODIFY IT UNDER THE TERMS OF THE GNU GENERAL PUBLIC       **
                                     11 ** LICENSE AS PUBLISHED BY THE FREE SOFTWARE FOUNDATION,            **
                                     12 ** EITHER VERSION 3 OF THE LICENSE, OR ANY LATER VERSION.           **
                                     13 **                                                                  **
                                     14 ** THIS PROGRAM IS DISTRIBUTED IN THE HOPE THAT IT WILL BE          **
                                     15 ** USEFUL, BUT WITHOUT ANY WARRANTY; WITHOUT EVEN THE IMPLIED       **
                                     16 ** WARRANTY OF MERCHANTABILITY OR FITNESS FOR A PARTICULAR          **
                                     17 ** PURPOSE.  SEE THE GNU GENERAL PUBLIC LICENSE FOR MORE            **
                                     18 ** DETAILS.                                                         **
                                     19 **                                                                  **
                                     20 ** PLEASE SEE HTTPS://WWW.GNU.ORG/LICENSES/ FOR A COPY OF THE       **
                                     21 ** GNU GENERAL PUBLIC LICENSE.                                      **
                                     22 **                                                                  **
                                     23 **********************************************************************
                                     24          PRINT OFF
                                    173          PRINT ON
                                    174 ***********************************************************************
                                    175 *                                                                     *
                                    176 *    THIS SUBROUTINE FORMATS STORAGE AREAS IN 3 DIFFERENT FORMATS.    *
                                    177 *    FIRST PARM IS A FORMAT CODE (1=IBM CORE DUMP FORMAT,             *
                                    178 *       1=IBM CORE DUMP FORMAT (1 CHARACTER)                          *
                                    179 *       2=DOUBLE DIGIT HEX W/CHAR ABOVE ON 2 LINES                    *
                                    180 *                                    A B C D                          *
                                    181 *                                    C1C2C3C4                         *
                                    182 *       3=DOUBLE DIGIT HEX W/CHAR ON 3 LINES                          *
                                    183 *                                    ABCD                             *
                                    184 *                                    CCCC                             *
                                    185 *                                    1234                             *
                                    186 *    SECOND PARM THE LENGTH OF THE AREA TO DUMP - HALFWORD            *
                                    187 *    THIRD PARM IS THE AREA TO DUMP - FULLWORD                        *
                                    188 *    FOURTH PARM IS THE FORMATED AREA TO BE RETURNED - 3 LINES        *
                                    189 *      OF 134 CHARS EACH.                                             *
                                    190 *    FIFTH PARM IS OPTIONAL OFFSET TO DISPLAY.  IF OMITTED, AREA IS   *
                                    191 *      IS LEFT BLANK.                                                 *
                                    192 *                                                                     *
                                    193 ***********************************************************************
                                    194 *                                                                     *
                                    195 *  SAMPLE CALLING SEUENCES                                            *
                                    196 *                                                                     *
                                    197 *  ASSEMBLER:                                                         *
                                    198 *          LA    R1,P3                                                *
                                    199 *          L     R15,=V(SNAPFR)                                       *
                                    200 *          BALR  R14,R15                                              *
                                    201 *                                                                     *
                                    202 * ...                                                                 *
                                    203 *                                                                     *
                                    204 * P3       DC    A(T1C)            FORMAT CODE                        *
         SNAPFR V1.0.0 - FORMAT STORAGE AREAS FOR PRINTING                                                     PAGE    3


  LOC  OBJECT CODE    ADDR1 ADDR2  STMT   SOURCE STATEMENT                                       ASM 0201 21.51 03/12/22

                                    205 *          DC    A(T2C)            NUMBER OF BYTES TO DISPLAY         *
                                    206 *          DC    A(SNAPTST)        AREA TO DISPLAY                    *
                                    207 *          DC    A(PRTLINE)        PRINT LINE AREA                    *
                                    208 *          DC    X'80'                                                *
                                    209 *          DC    AL3(PRTOFFS)      PRINT OFFSET                       *
                                    210 * T1C      DC    C'3'                                                 *
                                    211 * T2C      DC    H'120'                                               *
                                    212 * PRTLINE  DC    CL134' '                                             *
                                    213 * PRTLINE2 DC    CL134' '                                             *
                                    214 * PRTLINE3 DC    CL134' '                                             *
                                    215 * PRTOFFS  DC    F'255'                                               *
                                    216 *                                                                     *
                                    217 ***********************************************************************
                                    218 *                                                                     *
                                    219 *  COBOL:                                                             *
                                    220 *  WORKING-STORAGE SECTION.                                           *
                                    221 *  77  WS-FORMAT-TYPE         PIC  X      VALUE '3'.                  *
                                    222 *  77  WS-BYTE-COUNT          PIC  S9(4)  COMP SYNC VALUE +120.       *
                                    223 *  01  WS-SNAPFR-PRTLINES.                                            *
                                    224 *      05  WS-PRTLINE-1       PIC  X(134).                            *
                                    225 *      05  WS-PRTLINE-2       PIC  X(134).                            *
                                    226 *      05  WS-PRTLINE-3       PIC  X(134).                            *
                                    227 *  01  WS-OFFSET              PIC  S9(8)  COMP SYNC VALUE +255.       *
                                    228 *                                                                     *
                                    229 *  PROCEDURE DIVISION.                                                *
                                    230 *                                                                     *
                                    231 *      CALL 'SNAPFR' USING  WS-FORMAT-TYPE                            *
                                    232 *                           WS-BYTE-COUNT                             *
                                    233 *                           WS-AREA-TO DUMP                           *
                                    234 *                           WS-SNAPFR-PRTLINES                        *
                                    235 *                           WS-OFFSET.                                *
                                    236 *                                                                     *
                                    237 ***********************************************************************
                                    238 *                                                                     *
                                    239 *  PL/1 F:                                                            *
                                    240 *     DECLARE  1 WS_FORMAT_TYPE_1  STATIC,                            *
                                    241 *                2 WS_FORMAT_TYPE      CHAR(1),                       *
                                    242 *              1 WS_BYTE_COUNT_1  STATIC,                             *
                                    243 *                2 WS_BYTE_COUNT       FIXED BINARY(15),              *
                                    244 *              1 WS_SNAPFR_PRTLINES_1 STATIC,                         *
                                    245 *                2 WS_PRTLINE_1       CHAR(134),                      *
                                    246 *                2 WS_PRTLINE_2       CHAR(134),                      *
                                    247 *                2 WS_PRTLINE_3       CHAR(134),                      *
                                    248 *              1 WS_OFFSET_1 STATIC,                                  *
                                    249 *                2 WS-OFFSET          FIXED BINARY(31);               *
                                    250 *                                                                     *
                                    251 *                                                                     *
                                    252 *      CALL SNAPFRP (WS_FORMAT_TYPE_1,                                *
                                    253 *                    WS_BYTE_COUNT_1,                                 *
                                    254 *                    WS_AREA_TO_DUMP_1,                               *
                                    255 *                    WS_SNAPFR_PRTLINES_1,                            *
                                    256 *                    WS_OFFSET_1);                                    *
                                    257 *                                                                     *
         SNAPFR V1.0.0 - FORMAT STORAGE AREAS FOR PRINTING                                                     PAGE    4


  LOC  OBJECT CODE    ADDR1 ADDR2  STMT   SOURCE STATEMENT                                       ASM 0201 21.51 03/12/22

                                    259 ***********************************************************************
                                    260 *                                                                     *
                                    261 *    THIS SECTION INITITIALIZES THE PROGRAM AND VALIDATE PARMS        *
                                    262 *                                                                     *
                                    263 ***********************************************************************
                                    264 SNAPFR   ESTART TYPE=CSECT,DESC='SNAPPER FORMATER',VER='1.0.0',        *
                                                       REGS=YES,BASE=R12,PLIF=SNAPFRP
000000                              265+SNAPFR   CSECT                                                          00000016
                                    266+*                                                                       00000027
000000 92D5 F012      00012         267+         MVI   18(15),C'N'            SET NO PLI ENTRY POINT            00000029
000004 47FF 000C      0000C         268+         B     12(15)                 SKIP HEADER STUFF                 00000030
                                    269+         ENTRY SNAPFRP                                                  00000031
000008 92E8 F00A      0000A         270+SNAPFRP  MVI   10(15),C'Y'            SET PL1 ENTRY POINT               00000032
00000C 05F0                         271+         BALR  15,0                                                     00000033
00000E 47FF 007E      0007E         272+ID10001    B     ID40001(15)            SKIP HEADER STUFF               00000034
000012                              273+ID50001    DS   C                                                       00000035
                            00004   274+IDP0001    EQU  ID50001-ID10001                                         00000036
000013 78                           275+         DC    AL1(ID30001-ID20001)                                     00000041
000014 E2D5C1D7C6D94040             276+ID20001    DC    CL8'SNAPFR'                                            00000042
00001C F14BF04BF0                   277+         DC    C'1.0.0'                                                 00000043
000021 40F0F361F1F261F2             278+         DC    C' 03/12/22 21.51 - '                                    00000044
000033 E2D5C1D7D7C5D940             279+         DC    C'SNAPPER FORMATER'                                      00000045
000044                              280+         DS    0F                                                       00000046
                            00036   281+IDS0001    EQU   *-ID10001                                              00000047
000044                              282+         DS    18F                                                      00000048
00008C                              283+ID30001    DS    0H                                                     00000049
                            00000   284+R0       EQU   0                                                        00000007
                            00001   285+R1       EQU   1                                                        00000008
                            00002   286+R2       EQU   2                                                        00000009
                            00003   287+R3       EQU   3                                                        00000010
                            00004   288+R4       EQU   4                                                        00000011
                            00005   289+R5       EQU   5                                                        00000012
                            00006   290+R6       EQU   6                                                        00000013
                            00007   291+R7       EQU   7                                                        00000014
                            00008   292+R8       EQU   8                                                        00000015
                            00009   293+R9       EQU   9                                                        00000016
                            0000A   294+R10      EQU   10                                                       00000017
                            0000B   295+R11      EQU   11                                                       00000018
                            0000C   296+R12      EQU   12                                                       00000019
                            0000D   297+R13      EQU   13                                                       00000020
                            0000E   298+R14      EQU   14                                                       00000021
                            0000F   299+R15      EQU   15                                                       00000022
                            0007E   300+ID40001    EQU   *-ID10001                                              00000054
                                    301+*                                                                       00000055
00008C 90EC D00C      0000C         302+         STM   14,12,12(13)                                             00000056
                                    303+*                                                                       00000057
000090 185D                         304+         LR    5,13                COPY CALLER'S SAVEAREA ADDR          00000058
000092 41DF 0036      00036         305+         LA    13,IDS0001(15)      ESTABLISH MY SAVEAREA                00000059
000096 5050 D004      00004         306+         ST    5,4(,13)            BACK CHAIN SAVE AREAS                00000060
00009A 50D0 5008      00008         307+         ST    13,8(,5)            FORWARD CHAIN SAVE AREAS             00000061
00009E 05C0                         308+         BALR  R12,0               ESTABLISH BASE REG VALUE             00000063
                            000A0   309+         USING *,R12                                                    00000064
0000A0 95E8 F004      00004         310+         CLI   IDP0001(15),C'Y'         SET CC BASED ON PLI INDICATOR   00000067
0000A4 4770 C0A4      00144         311          BNE   NOTPL1
0000A8 9180 1000      00000         312          TM    0(R1),X'80'            TEST HIGH ORDER BIT PARM 1
         SNAPFR V1.0.0 - FORMAT STORAGE AREAS FOR PRINTING                                                     PAGE    5


  LOC  OBJECT CODE    ADDR1 ADDR2  STMT   SOURCE STATEMENT                                       ASM 0201 21.51 03/12/22

0000AC 4710 C0F0      00190         313          BO    PARMCNT                BRANCH IF ON
0000B0 9180 1004      00004         314          TM    4(R1),X'80'            TEST HIGH ORDER BIT PARM 2
0000B4 4710 C0F0      00190         315          BO    PARMCNT                BRANCH IF ON
0000B8 9180 1008      00008         316          TM    8(R1),X'80'            TEST HIGH ORDER BIT PARM 3
0000BC 4710 C0F0      00190         317          BO    PARMCNT                BRANCH IF ON
0000C0 9180 100C      0000C         318          TM    12(R1),X'80'           TEST HIGH ORDER BIT PARM 4
0000C4 4710 C030      000D0         319          BO    PL1PARM                BRANCH IF ON
0000C8 9180 1010      00010         320          TM    16(R1),X'80'           TEST HIGH ORDER BIT PARM 5
0000CC 4780 C0F0      00190         321          BZ    PARMCNT                BRANCH IF MORE THAN 5
                            000D0   322 PL1PARM  EQU   *
0000D0 5820 1000      00000         323          L     R2,0(,R1)
0000D4 5820 2000      00000         324          L     R2,0(,R2)
0000D8 5020 C090      00130         325          ST    R2,STDPARM1
0000DC 5820 1004      00004         326          L     R2,4(,R1)
0000E0 5820 2000      00000         327          L     R2,0(,R2)
0000E4 5020 C094      00134         328          ST    R2,STDPARM2
0000E8 5820 1008      00008         329          L     R2,8(,R1)
0000EC 5820 2000      00000         330          L     R2,0(,R2)
0000F0 5020 C098      00138         331          ST    R2,STDPARM3
0000F4 5820 100C      0000C         332          L     R2,12(,R1)
0000F8 5820 2000      00000         333          L     R2,0(,R2)
0000FC 5020 C09C      0013C         334          ST    R2,STDPARM4
000100 9180 100C      0000C         335          TM    12(R1),X'80'
000104 4780 C070      00110         336          BZ    DOPARM5
000108 9680 C09C      0013C         337          OI    STDPARM4,X'80'          ONLY 4 PARMS
00010C 47F0 C0A4      00144         338          B     NOTPL1
                            00110   339 DOPARM5  EQU   *
000110 9180 1010      00010         340          TM    16(R1),X'80'            IF THE 5TH PARM THE LAST?
000114 4780 C0F0      00190         341          BZ    PARMCNT
000118 5820 1010      00010         342          L     R2,16(,R1)
00011C 5820 2000      00000         343          L     R2,0(,R2)
000120 5020 C0A0      00140         344          ST    R2,STDPARM5
000124 9680 C0A0      00140         345          OI    STDPARM5,X'80'
000128 4110 C090      00130         346          LA    R1,STDPARM
00012C 47F0 C0A4      00144         347          B     NOTPL1
000130                              348 STDPARM  DS    0F
000130 00000000                     349 STDPARM1 DC    F'0'
000134 00000000                     350 STDPARM2 DC    F'0'
000138 00000000                     351 STDPARM3 DC    F'0'
00013C 00000000                     352 STDPARM4 DC    F'0'
000140 00000000                     353 STDPARM5 DC    F'0'
                                    354 *
                            00144   355 NOTPL1   EQU   *
                                    356 *
                                    357 *   VERIFY THAT AT LEAST 4 PARMS WERE PASSED
                                    358 *
                                    359 *
000144 9240 C2FE      0039E         360          MVI   OFFSTWRK,C' '
000148 D206 C2FF C2FE 0039F 0039E   361          MVC   OFFSTWRK+1(L'OFFSTWRK-1),OFFSTWRK
00014E 9826 1000      00000         362          LM    R2,R6,0(R1)            GET THE PARM LIST
000152 9180 1000      00000         363          TM    0(R1),X'80'            TEST HIGH ORDER BIT PARM 1
000156 4710 C0F0      00190         364          BO    PARMCNT                BRANCH IF ON
00015A 9180 1004      00004         365          TM    4(R1),X'80'            TEST HIGH ORDER BIT PARM 2
00015E 4710 C0F0      00190         366          BO    PARMCNT                BRANCH IF ON
000162 9180 1008      00008         367          TM    8(R1),X'80'            TEST HIGH ORDER BIT PARM 3
         SNAPFR V1.0.0 - FORMAT STORAGE AREAS FOR PRINTING                                                     PAGE    6


  LOC  OBJECT CODE    ADDR1 ADDR2  STMT   SOURCE STATEMENT                                       ASM 0201 21.51 03/12/22

000166 4710 C0F0      00190         368          BO    PARMCNT                BRANCH IF ON
00016A 9180 100C      0000C         369          TM    12(R1),X'80'           TEST HIGH ORDER BIT PARM 4
00016E 4710 C122      001C2         370          BO    PARMOK                 BRANCH IF ON
000172 9180 1010      00010         371          TM    16(R1),X'80'           TEST HIGH ORDER BIT PARM 5
000176 4780 C0F0      00190         372          BZ    PARMCNT                BRANCH IF MORE THAN 5
00017A F384 C306 6000 003A6 00000   373          UNPK  UNPKWRK,0(5,R6)        UNPACK THE OFFSET WORD
                                    374          $TRTAB UNPKWRK(8),HX=*
000180 DC07 C306 C31F 003A6 003BF   375+         TR    UNPKWRK(8),$TRTABHX-X'F0'
000186 D207 C2FE C306 0039E 003A6   376          MVC   OFFSTWRK,UNPKWRK       MOVE THE OFFSET WORD UNPACKED
00018C 47F0 C122      001C2         377          B     PARMOK
                                    378 PARMCNT  WTO   'SNAPFR - INCORRECT PARM COUNT',ROUTCDE=(2,11)
000190                              379+         CNOP  0,4                                                      09800002
000190 4510 C11A      001BA         380+PARMCNT  BAL   1,IHB0004A                        BRANCH AROUND MESSAGE  09850002
000194 0021                         381+         DC    AL2(33)             TEXT LENGTH                          13200002
000196 8000                         382+         DC    B'1000000000000000' MCS FLAGS                            13250002
000198 E2D5C1D7C6D94060             383+         DC    C'SNAPFR - INCORRECT PARM COUNT'                         13350002
0001B5 0000                         384+         DC    B'0000000000000000' DESCRIPTOR CODES                     13450002
0001B7 4020                         385+         DC    B'0100000000100000' ROUTING CODES                        13500002
0001BA                              386+IHB0004A DS    0H                                                       15850002
0001BA 0A23                         387+         SVC   35                                                       15950002
                                    388          ABEND 1,,,USER
0001BC                              389+         DS    0H                                                       00400002
0001BC 4110 0001      00001         390+         LA    1,1                               LOAD PARAMETER REG 1   01900002
0001C0 0A0D                         391+         SVC   13                 LINK TO ABEND ROUTINE                 02050002
                            001C2   392 PARMOK   EQU   *
0001C2 95F1 2000      00000         393          CLI   0(R2),C'1'             ONE LINE
0001C6 4780 C16E      0020E         394          BE    LINE1OK                YES, BRANCH
0001CA 95F2 2000      00000         395          CLI   0(R2),C'2'             TWO LINE
0001CE 4780 C176      00216         396          BE    LINE2OK                YES, BRANCH
0001D2 95F3 2000      00000         397          CLI   0(R2),C'3'             THREE LINE
0001D6 4780 C17E      0021E         398          BE    LINE3OK                YES, BRANCH
                            001DA   399 NOT3LN   EQU   *
                                    400          WTO   'SNAPFR - INVALID FUNCTION CODE',ROUTCDE=(2,11)
0001DA 0700                         401+         CNOP  0,4                                                      09800002
0001DC 4510 C166      00206         402+         BAL   1,IHB0007A                        BRANCH AROUND MESSAGE  09850002
0001E0 0022                         403+         DC    AL2(34)             TEXT LENGTH                          13200002
0001E2 8000                         404+         DC    B'1000000000000000' MCS FLAGS                            13250002
0001E4 E2D5C1D7C6D94060             405+         DC    C'SNAPFR - INVALID FUNCTION CODE'                        13350002
000202 0000                         406+         DC    B'0000000000000000' DESCRIPTOR CODES                     13450002
000204 4020                         407+         DC    B'0100000000100000' ROUTING CODES                        13500002
000206                              408+IHB0007A DS    0H                                                       15850002
000206 0A23                         409+         SVC   35                                                       15950002
                                    410          ABEND 2,,,USER
000208                              411+         DS    0H                                                       00400002
000208 4110 0002      00002         412+         LA    1,2                               LOAD PARAMETER REG 1   01900002
00020C 0A0D                         413+         SVC   13                 LINK TO ABEND ROUTINE                 02050002
                            0020E   414 LINE1OK  EQU   *
00020E 41B0 C420      004C0         415          LA    R11,TYPE1
000212 47F0 C182      00222         416          B     LINESOK
                            00216   417 LINE2OK  EQU   *
000216 41B0 C424      004C4         418          LA    R11,TYPE2
00021A 47F0 C182      00222         419          B     LINESOK
                            0021E   420 LINE3OK  EQU   *
00021E 41B0 C428      004C8         421          LA    R11,TYPE3
                            00222   422 LINESOK  EQU   *
         SNAPFR V1.0.0 - FORMAT STORAGE AREAS FOR PRINTING                                                     PAGE    7


  LOC  OBJECT CODE    ADDR1 ADDR2  STMT   SOURCE STATEMENT                                       ASM 0201 21.51 03/12/22

                            00000   423          USING TYPECON,R11
                                    424 *---------------------------------------------------------------------*
                                    425 * VERIFY THE PARM LENGTH                                              *
                                    426 *---------------------------------------------------------------------*
000222 4860 3000      00000         427          LH    R6,0(0,R3)              GET DATA LENGTH
000226 1266                         428          LTR   R6,R6
000228 4780 C194      00234         429          BZ    LENBAD
00022C 4960 B000      00000         430          CH    R6,TYPMXLEN
000230 47D0 C1C6      00266         431          BNH   LENOK                   IF SO, BRANCH
                                    432 LENBAD   WTO   'SNAPFR - INCORRECT DATA LENGTH',ROUTCDE=(2,11)
000234                              433+         CNOP  0,4                                                      09800002
000234 4510 C1BE      0025E         434+LENBAD   BAL   1,IHB0010A                        BRANCH AROUND MESSAGE  09850002
000238 0022                         435+         DC    AL2(34)             TEXT LENGTH                          13200002
00023A 8000                         436+         DC    B'1000000000000000' MCS FLAGS                            13250002
00023C E2D5C1D7C6D94060             437+         DC    C'SNAPFR - INCORRECT DATA LENGTH'                        13350002
00025A 0000                         438+         DC    B'0000000000000000' DESCRIPTOR CODES                     13450002
00025C 4020                         439+         DC    B'0100000000100000' ROUTING CODES                        13500002
00025E                              440+IHB0010A DS    0H                                                       15850002
00025E 0A23                         441+         SVC   35                                                       15950002
                                    442          ABEND 3,,,USER
000260                              443+         DS    0H                                                       00400002
000260 4110 0003      00003         444+         LA    1,3                               LOAD PARAMETER REG 1   01900002
000264 0A0D                         445+         SVC   13                 LINK TO ABEND ROUTINE                 02050002
                            00266   446 LENOK    EQU   *
                                    447 *---------------------------------------------------------------------*
                                    448 * NOW FORMAT THE DATA AREA   R4=SOURCE, R5=DESTINATION, R6=LEN,       *
                                    449 *                            R7=CHAR DEST.                            *
                                    450 *---------------------------------------------------------------------*
000266 9240 5000      00000         451          MVI   0(R5),C' '             CLEAR OUTPUT LINE
00026A D284 5001 5000 00001 00000   452          MVC   1(133,R5),0(R5)              TO SPACES
000270 D207 5001 C2FE 00001 0039E   453          MVC   1(8,R5),OFFSTWRK       MOVE THE OFFSET WORD UNPACKED
000276 95F1 2000      00000         454          CLI   0(R2),C'1'             1 LINE FORMAT?
00027A 4770 C24A      002EA         455          BNE   NOT1LN                 NO, BRANCH
00027E 4170 505A      0005A         456          LA    R7,90(,R5)
000282 925C 5059      00059         457          MVI   89(R5),C'*'
000286 925C 507A      0007A         458          MVI   122(R5),C'*'
00028A 4150 500A      0000A         459          LA    R5,10(,R5)             ADJUST FOR ASA CC AND OFFSET
                            0028E   460 UNPKLUP1 EQU   *
00028E 4180 0003      00003         461          LA    R8,3
000292 4190 0007      00007         462          LA    R9,7
000296 4960 C2F8      00398         463          CH    R6,=H'3'
00029A 4720 C20C      002AC         464          BH    FULLMV
00029E 1886                         465          LR    R8,R6
0002A0 4B80 C2FA      0039A         466          SH    R8,=H'1'
0002A4 1896                         467          LR    R9,R6
0002A6 1A96                         468          AR    R9,R6
0002A8 4B90 C2FA      0039A         469          SH    R9,=H'1'
                            002AC   470 FULLMV   EQU   *
0002AC 4480 C23E      002DE         471          EX    R8,MVC1LN1             MOVE THE RAW DATA TO CHAR DUMP
                                    472          $TRTAB 0(4,R7),CH=*          TRANSLATE
0002B0 DC03 7000 C30F 00000 003AF   473+         TR    0(4,R7),$TRTABCH
0002B6 F384 C306 4000 003A6 00000   474          UNPK  UNPKWRK,0(5,R4)        UNPACK THE FIRST WORD
                                    475          $TRTAB UNPKWRK(8),HX=*
0002BC DC07 C306 C31F 003A6 003BF   476+         TR    UNPKWRK(8),$TRTABHX-X'F0'
0002C2 4490 C244      002E4         477          EX    R9,MVC1LN2
         SNAPFR V1.0.0 - FORMAT STORAGE AREAS FOR PRINTING                                                     PAGE    8


  LOC  OBJECT CODE    ADDR1 ADDR2  STMT   SOURCE STATEMENT                                       ASM 0201 21.51 03/12/22

0002C6 4140 4004      00004         478          LA    R4,4(,R4)              NEXT WORD
0002CA 4150 5009      00009         479          LA    R5,9(,R5)              NEXT HEX DISPLAY
0002CE 4170 7004      00004         480          LA    R7,4(,R7)              NEXT CHARACTER DISPLAY
0002D2 4B60 C2FC      0039C         481          SH    R6,=H'4'
0002D6 4720 C1EE      0028E         482          BH    UNPKLUP1
0002DA 47F0 C2E4      00384         483          B     EXIT
0002DE D200 7000 4000 00000 00000   484 MVC1LN1  MVC   0(0,R7),0(R4)          MOVE THE RAW DATA TO CHAR DUMP
0002E4 D200 5000 C306 00000 003A6   485 MVC1LN2  MVC   0(0,R5),UNPKWRK
                            002EA   486 NOT1LN   EQU   *
0002EA D285 5086 5000 00086 00000   487          MVC   134(134,R5),0(R5)      CLEAR LINE 2 TO SPACES
0002F0 95F2 2000      00000         488          CLI   0(R2),C'2'             2 LINE FORMAT?
0002F4 4770 C294      00334         489          BNE   NOT2LN                 NO, BRANCH
0002F8 4150 500A      0000A         490          LA    R5,10(,R5)             ADJUST FOR ASA CC AND OFFSET
0002FC 1875                         491          LR    R7,R5
0002FE 4150 5086      00086         492          LA    R5,134(,R5)            POSITION ON NEXT LINE
                            00302   493 UNPKLUP2 EQU   *
000302 D200 7000 4000 00000 00000   494          MVC   0(1,R7),0(R4)          MOVE THE RAW DATA TO CHAR DUMP
                                    495          $TRTAB 0(1,R7),CH=*          TRANSLATE
000308 DC00 7000 C30F 00000 003AF   496+         TR    0(1,R7),$TRTABCH
00030E F321 C306 4000 003A6 00000   497          UNPK  UNPKWRK(3),0(2,R4)     UNPACK THE FIRST WORD
                                    498          $TRTAB UNPKWRK(2),HX=*
000314 DC01 C306 C31F 003A6 003BF   499+         TR    UNPKWRK(2),$TRTABHX-X'F0'
00031A D201 5000 C306 00000 003A6   500          MVC   0(2,R5),UNPKWRK
000320 4140 4001      00001         501          LA    R4,1(,R4)              NEXT BYTE
000324 4150 5002      00002         502          LA    R5,2(,R5)              NEXT HEX DISPLAY
000328 4170 7002      00002         503          LA    R7,2(,R7)              NEXT CHARACTER DISPLAY
00032C 4660 C262      00302         504          BCT   R6,UNPKLUP2
000330 47F0 C2E4      00384         505          B     EXIT
                            00334   506 NOT2LN   EQU   *
000334 D285 510C 5000 0010C 00000   507          MVC   268(134,R5),0(R5)      CLEAR LINE 3 TO SPACES
00033A 95F3 2000      00000         508          CLI   0(R2),C'3'             2 LINE FORMAT?
00033E 4770 C13A      001DA         509          BNE   NOT3LN                 NO, BRANCH
000342 4150 500A      0000A         510          LA    R5,10(,R5)             ADJUST FOR ASA CC AND OFFSET
000346 1875                         511          LR    R7,R5
000348 4150 5086      00086         512          LA    R5,134(,R5)            POSITION ON NEXT LINE
                            0034C   513 UNPKLUP3 EQU   *
00034C D200 7000 4000 00000 00000   514          MVC   0(1,R7),0(R4)          MOVE THE RAW DATA TO CHAR DUMP
                                    515          $TRTAB 0(1,R7),CH=*          TRANSLATE
000352 DC00 7000 C30F 00000 003AF   516+         TR    0(1,R7),$TRTABCH
000358 F321 C306 4000 003A6 00000   517          UNPK  UNPKWRK(3),0(2,R4)     UNPACK THE FIRST WORD
                                    518          $TRTAB UNPKWRK(2),HX=*
00035E DC01 C306 C31F 003A6 003BF   519+         TR    UNPKWRK(2),$TRTABHX-X'F0'
000364 D200 5000 C306 00000 003A6   520          MVC   0(1,R5),UNPKWRK
00036A D200 5086 C307 00086 003A7   521          MVC   134(1,R5),UNPKWRK+1
000370 4140 4001      00001         522          LA    R4,1(,R4)              NEXT BYTE
000374 4150 5001      00001         523          LA    R5,1(,R5)              NEXT HEX DISPLAY
000378 4170 7001      00001         524          LA    R7,1(,R7)              NEXT CHARACTER DISPLAY
00037C 4660 C2AC      0034C         525          BCT   R6,UNPKLUP3
000380 47F0 C2E4      00384         526          B     EXIT
                                    527 *---------------------------------------------------------------------*
                                    528 * RETURN TO CALLER PROGRAM WITH ZERO RETURN CODE 0                    *
                                    529 *---------------------------------------------------------------------*
                            00384   530 EXIT     EQU   *
                                    531          ERETURN RC=0
000384 58D0 D004      00004         532+         L     13,4(0,13)          RESET TO CALLERS SAVE AREA           00000004
         SNAPFR V1.0.0 - FORMAT STORAGE AREAS FOR PRINTING                                                     PAGE    9


  LOC  OBJECT CODE    ADDR1 ADDR2  STMT   SOURCE STATEMENT                                       ASM 0201 21.51 03/12/22

000388 98EC D00C      0000C         533+         LM    14,12,12(13)                      RESTORE THE REGISTERS  00650000
00038C 41F0 0000      00000         534+         LA    15,0(0,0)                         LOAD RETURN CODE       01750000
000390 07FE                         535+         BR    14                                RETURN                 02000000
000398                              536          LTORG
000398 0003                         537                =H'3'
00039A 0001                         538                =H'1'
00039C 0004                         539                =H'4'
                                    540 *---------------------------------------------------------------------*
                                    541 * COMMON WORK AREAS                                                   *
                                    542 *---------------------------------------------------------------------*
00039E                              543 OFFSTWRK DS    CL8
0003A6                              544 UNPKWRK  DS    CL9
                                    545          $TRTAB
                                    546+**********************************************************************
                                    547+*    TRANSLATE TABLE IS ALWAYS CALLED $TRTABCH.  SECOND PARM TO      *
                                    548+*    MACRO GIVES TABLE AN ALIAS.                                     *
                                    549+*    A HEX CHARACTER TRANSLATION TABLE IS ALWAYS $TRTABHX            *
                                    550+**********************************************************************
0003AF 4B4B4B4B4B4B4B4B             551+$TRTABCH DC    16C'.'                 X'00'=X'0F'
0003BF 4B4B4B4B4B4B4B4B             552+         DC    16C'.'                 X'10'=X'1F'
0003CF 4B4B4B4B4B4B4B4B             553+         DC    16C'.'                 X'20'=X'2F'
0003DF 4B4B4B4B4B4B4B4B             554+         DC    16C'.'                 X'30'=X'3F'
0003EF 404B4B4B4B4B4B4B             555+         DC    CL16' ............(..' X'40'=X'4F'
0003FF 4B4B4B4B4B4B4B4B             556+         DC    CL16'............*)..' X'50'=X'5F'
00040F 4B614B4B4B4B4B4B             557+         DC    CL16'./.........,....' X'60'=X'6F'
00041F 4B4B4B4B4B4B4B4B             558+         DC    CL16'.............''=.' X'70'=X'7F'
00042F 4B81828384858687             559+         DC    CL16'.abcdefghi......' X'80'=X'8F'
00043F 4B91929394959697             560+         DC    CL16'.jklmnopqr......' X'90'=X'9F'
00044F 4B4BA2A3A4A5A6A7             561+         DC    CL16'..stuvwxyz......' X'A0'=X'AF'
00045F 4B4B4B4B4B4B4B4B             562+         DC    16C'.'                 X'B0'=X'BF'
00046F 4BC1C2C3C4C5C6C7             563+         DC    CL16'.ABCDEFGHI......' X'C0'=X'CF'
00047F 4BD1D2D3D4D5D6D7             564+         DC    CL16'.JKLMNOPQR......' X'D0'=X'DF'
00048F 4B4BE2E3E4E5E6E7             565+         DC    CL16'..STUVWXYZ......' X'E0'=X'EF'
00049F F0F1F2F3F4F5F6F7             566+         DC    CL16'0123456789......' X'F0'=X'FF'
0004AF F0F1F2F3F4F5F6F7             567+$TRTABHX DC    CL16'0123456789ABCDEF' X'F0'=X'FF'
                                    568 *---------------------------------------------------------------------*
                                    569 * CALL TYPE DEPENDENT CONSTANTS                                       *
                                    570 *---------------------------------------------------------------------*
0004C0                              571 TYPE1    DS    0F
0004C0 0020                         572          DC    H'32'            TYPE 1 MAX BYTES PER CALL
0004C4                              573 TYPE2    DS    0F
0004C4 003C                         574          DC    H'60'            TYPE 2 MAX BYTES PER CALL
0004C8                              575 TYPE3    DS    0F
0004C8 0078                         576          DC    H'120'           TYPE 3 MAX BYTES PER CALL
000000                              577 TYPECON  DSECT
000000                              578 TYPMXLEN DS    H                MAX BYTES PER CALL
000000                              579          END   SNAPFR
                                                  CROSS-REFERENCE                                              PAGE   10


SYMBOL    LEN   VALUE   DEFN    REFERENCES                                                       ASM 0201 21.51 03/12/22

$TRTABCH 00001 000003AF 00551  00473 00496 00516
$TRTABHX 00016 000004AF 00567  00375 00476 00499 00519
DOPARM5  00001 00000110 00339  00336
EXIT     00001 00000384 00530  00483 00505 00526
FULLMV   00001 000002AC 00470  00464
IDP0001  00001 00000004 00274  00310
IDS0001  00001 00000036 00281  00305
ID10001  00004 0000000E 00272  00274 00281 00300
ID20001  00008 00000014 00276  00275
ID30001  00002 0000008C 00283  00275
ID40001  00001 0000007E 00300  00272
ID50001  00001 00000012 00273  00274
IHB0004A 00002 000001BA 00386  00380
IHB0007A 00002 00000206 00408  00402
IHB0010A 00002 0000025E 00440  00434
LENBAD   00004 00000234 00434  00429
LENOK    00001 00000266 00446  00431
LINESOK  00001 00000222 00422  00416 00419
LINE1OK  00001 0000020E 00414  00394
LINE2OK  00001 00000216 00417  00396
LINE3OK  00001 0000021E 00420  00398
MVC1LN1  00006 000002DE 00484  00471
MVC1LN2  00006 000002E4 00485  00477
NOTPL1   00001 00000144 00355  00311 00338 00347
NOT1LN   00001 000002EA 00486  00455
NOT2LN   00001 00000334 00506  00489
NOT3LN   00001 000001DA 00399  00509
OFFSTWRK 00008 0000039E 00543  00360 00361 00361 00361 00376 00453
PARMCNT  00004 00000190 00380  00313 00315 00317 00321 00341 00364 00366 00368 00372
PARMOK   00001 000001C2 00392  00370 00377
PL1PARM  00001 000000D0 00322  00319
R1       00001 00000001 00285  00312 00314 00316 00318 00320 00323 00326 00329 00332 00335 00340 00342 00346 00362 00363
                               00365 00367 00369 00371
R11      00001 0000000B 00295  00415 00418 00421 00423
R12      00001 0000000C 00296  00308 00309
R2       00001 00000002 00286  00323 00324 00324 00325 00326 00327 00327 00328 00329 00330 00330 00331 00332 00333 00333
                               00334 00342 00343 00343 00344 00362 00393 00395 00397 00454 00488 00508
R3       00001 00000003 00287  00427
R4       00001 00000004 00288  00474 00478 00478 00484 00494 00497 00501 00501 00514 00517 00522 00522
R5       00001 00000005 00289  00451 00452 00452 00453 00456 00457 00458 00459 00459 00479 00479 00485 00487 00487 00490
                               00490 00491 00492 00492 00500 00502 00502 00507 00507 00510 00510 00511 00512 00512 00520
                               00521 00523 00523
R6       00001 00000006 00290  00362 00373 00427 00428 00428 00430 00463 00465 00467 00468 00481 00504 00525
R7       00001 00000007 00291  00456 00473 00480 00480 00484 00491 00494 00496 00503 00503 00511 00514 00516 00524 00524
R8       00001 00000008 00292  00461 00465 00466 00471
R9       00001 00000009 00293  00462 00467 00468 00469 00477
SNAPFR   00001 00000000 00265  00579
SNAPFRP  00004 00000008 00270  00269
STDPARM  00004 00000130 00348  00346
STDPARM1 00004 00000130 00349  00325
STDPARM2 00004 00000134 00350  00328
STDPARM3 00004 00000138 00351  00331
STDPARM4 00004 0000013C 00352  00334 00337
STDPARM5 00004 00000140 00353  00344 00345
TYPECON  00001 00000000 00577  00423
                                                  CROSS-REFERENCE                                              PAGE   11


SYMBOL    LEN   VALUE   DEFN    REFERENCES                                                       ASM 0201 21.51 03/12/22

TYPE1    00004 000004C0 00571  00415
TYPE2    00004 000004C4 00573  00418
TYPE3    00004 000004C8 00575  00421
TYPMXLEN 00002 00000000 00578  00430
UNPKLUP1 00001 0000028E 00460  00482
UNPKLUP2 00001 00000302 00493  00504
UNPKLUP3 00001 0000034C 00513  00525
UNPKWRK  00009 000003A6 00544  00373 00375 00376 00474 00476 00485 00497 00499 00500 00517 00519 00520 00521
                                                  LITERAL CROSS-REFERENCE                                      PAGE   12


SYMBOL    LEN   VALUE   DEFN    REFERENCES                                                       ASM 0201 21.51 03/12/22

=H'3'    00002 00000398 00537  00463
=H'1'    00002 0000039A 00538  00466 00469
=H'4'    00002 0000039C 00539  00481
                                                  ASSEMBLER DIAGNOSTICS AND STATISTICS                         PAGE   13


                                                                                                 ASM 0201 21.51 03/12/22

NO STATEMENTS FLAGGED IN THIS ASSEMBLY
HIGHEST SEVERITY WAS    0
OPTIONS FOR THIS ASSEMBLY
  ALIGN, ALOGIC, BUFSIZE(STD), DECK, ESD, FLAG(0), LINECOUNT(55), LIST, NOMCALL, YFLAG, WORKSIZE(2097152)
  NOMLOGIC, NONUMBER, OBJECT, NORENT, RLD, NOSTMT, NOLIBMAC, NOTERMINAL, NOTEST, XREF(SHORT)
  SYSPARM()
WORK FILE BUFFER SIZE/NUMBER = 8702/ 1
TOTAL RECORDS READ FROM SYSTEM INPUT        463
TOTAL RECORDS READ FROM SYSTEM LIBRARY     1169
TOTAL RECORDS PUNCHED                        28
TOTAL RECORDS PRINTED                       535

 F64-LEVEL LINKAGE EDITOR OPTIONS SPECIFIED XREF,LET,LIST,NCAL
          DEFAULT OPTION(S) USED -  SIZE=(98304,55296)
IEW0000      ALIAS SNAPFRP
IEW0000      NAME SNAPFR(R)



                                                CROSS REFERENCE TABLE


  CONTROL SECTION                       ENTRY

    NAME    ORIGIN  LENGTH                NAME   LOCATION     NAME   LOCATION     NAME   LOCATION     NAME   LOCATION
  SNAPFR        00     4CA
                                        SNAPFRP        8

 ENTRY ADDRESS       00

 TOTAL LENGTH       4D0
****SNAPFR    DOES NOT EXIST BUT HAS BEEN ADDED TO DATA SET
****SNAPFRP   IS AN ALIAS FOR THIS MEMBER
AUTHORIZATION CODE IS         0.

                                               EXTERNAL SYMBOL DICTIONARY                                      PAGE    1


SYMBOL   TYPE  ID   ADDR  LENGTH LDID                                                            ASM 0201 21.51 03/12/22

FILEDUMP  SD  0001 000000 000B50
SNAPFR    ER  0002
         FILEDUMP V1.0.0 - PRINT FILE DUMPS ****                                                               PAGE    2


  LOC  OBJECT CODE    ADDR1 ADDR2  STMT   SOURCE STATEMENT                                       ASM 0201 21.51 03/12/22

                                      2 **********************************************************************
                                      3 **                                                                  **
                                      4 ** FILEDUMP V1.0.0 - PRINT A FORMATED DUMP OF A SEQUENTIAL FILE     **
                                      5 **                                                                  **
                                      6 **             COPYRIGHT (C) 2022  EDWARD G LISS                    **
                                      7 **                     EGLISS4024@GMAIL.COM                         **
                                      8 **                                                                  **
                                      9 ** THIS PROGRAM IS FREE SOFTWARE: YOU CAN REDISTRIBUTE IT           **
                                     10 ** AND/OR MODIFY IT UNDER THE TERMS OF THE GNU GENERAL PUBLIC       **
                                     11 ** LICENSE AS PUBLISHED BY THE FREE SOFTWARE FOUNDATION,            **
                                     12 ** EITHER VERSION 3 OF THE LICENSE, OR ANY LATER VERSION.           **
                                     13 **                                                                  **
                                     14 ** THIS PROGRAM IS DISTRIBUTED IN THE HOPE THAT IT WILL BE          **
                                     15 ** USEFUL, BUT WITHOUT ANY WARRANTY; WITHOUT EVEN THE IMPLIED       **
                                     16 ** WARRANTY OF MERCHANTABILITY OR FITNESS FOR A PARTICULAR          **
                                     17 ** PURPOSE.  SEE THE GNU GENERAL PUBLIC LICENSE FOR MORE            **
                                     18 ** DETAILS.                                                         **
                                     19 **                                                                  **
                                     20 ** PLEASE SEE HTTPS://WWW.GNU.ORG/LICENSES/ FOR A COPY OF THE       **
                                     21 ** GNU GENERAL PUBLIC LICENSE.                                      **
                                     22 **                                                                  **
                                     23 **********************************************************************
                                     24          PRINT OFF
                                    173          PRINT ON
                                    174 ***********************************************************************
                                    175 *                                                                     *
                                    176 *  FILEDUMP - PROGRAM TO FORMAT AND PRINT SEQUENTIAL FILE DUMPS.      *
                                    177 *                                                                     *
                                    178 *    THIS PROGRAM READ FIXED OR VARIABLE LENGTH RECORD DATASETS       *
                                    179 *    USING THE SNAPFR SUBROUTINE.                                     *
                                    180 *                                                                     *
                                    181 *    THESE RECFM PRINTS ARE SUPPORTED - F,FA,FBA,V,VA,VBA             *
                                    182 *                                                                     *
                                    183 *  REQUIRED DD STATEMENTS:                                            *
                                    184 *    SYSPRINT   RECFM=VBA,LRECL=121,BLKSIZE=1210                      *
                                    185 *    SYSUT1     DCB FROM FROM INPUT DATASET                           *
                                    186 *    SYSUT2     RECFM=FBA,LRECL=133,BLKSIZE=133                       *
                                    187 *                                                                     *
                                    188 ***********************************************************************
                                    189 *                                                                     *
                                    190 * THIS CODE IS PLACED IN THE PUBLIC DOMAIN AND MAY BE FREELY USED     *
                                    191 * AND INCORPORATED INTO DERIVED WORKS AS LONG AS ATTRIBUTION TO THE   *
                                    192 * ORIGINAL AUTHORSHIP REMAINS IN ANY DISTRIBUTED COPIES OF THE ALC    *
                                    193 * SOURCE.                                                             *
                                    194 *                                                                     *
                                    195 * RELEASE SEPTEMBER, 2008  BY ED LISS                                 *
                                    196 *                                                                     *
                                    197 ***********************************************************************
                                    198          MACRO
                                    199 &SNP     SNAPARM &FMTCD,&FMTLN,&FMTADR,&FMTLIN,&FMTOFS
                                    200 **
                                    201 **    WORK AREAS FOR PARMS TO SNAPRF
                                    202 **
                                    203 &SNP.RFP  DS    0F              EXPECTED DATA ITEMS
                                    204 &SNP.RFMT DC    A(&FMTCD)          CL1    FORMAT CODE (1,2, OR 3)
         FILEDUMP V1.0.0 - PRINT FILE DUMPS ****                                                               PAGE    3


  LOC  OBJECT CODE    ADDR1 ADDR2  STMT   SOURCE STATEMENT                                       ASM 0201 21.51 03/12/22

                                    205 &SNP.RFLN DC    A(&FMTLN)          H      NUMBER OF BYTES TO DISPLAY
                                    206 &SNP.RADR DC    A(&FMTADR)         A      AREA TO DISPLAY
                                    207 &SNP.ROUT DC    A(&FMTLIN)         3CL134 PRINT LINE(S) AREA
                                    208 &SNP.ROFS DC    X'80'
                                    209           DC    AL3(&FMTOFS)       F      PRINT OFFSET
                                    210          MEND
                                    211 FILEDUMP ESTART DESC='FILEDUMP PGM',VER='1.0.0',BASE=R12,REGS=YES
000000                              212+FILEDUMP CSECT                                                          00000016
                                    213+*                                                                       00000027
000000 47FF 0078      00078         214+ID10001    B     ID40001(15)           BRANCH AROUND IDENT CONSTANTS    00000039
000004 73                           215+         DC    AL1(ID30001-ID20001)                                     00000041
000005 C6C9D3C5C4E4D4D7             216+ID20001    DC    CL8'FILEDUMP'                                          00000042
00000D F14BF04BF0                   217+         DC    C'1.0.0'                                                 00000043
000012 40F0F361F1F261F2             218+         DC    C' 03/12/22 21.51 - '                                    00000044
000024 C6C9D3C5C4E4D4D7             219+         DC    C'FILEDUMP PGM'                                          00000045
000030                              220+         DS    0F                                                       00000046
                            00030   221+IDS0001    EQU   *-ID10001                                              00000047
000030                              222+         DS    18F                                                      00000048
000078                              223+ID30001    DS    0H                                                     00000049
                            00000   224+R0       EQU   0                                                        00000007
                            00001   225+R1       EQU   1                                                        00000008
                            00002   226+R2       EQU   2                                                        00000009
                            00003   227+R3       EQU   3                                                        00000010
                            00004   228+R4       EQU   4                                                        00000011
                            00005   229+R5       EQU   5                                                        00000012
                            00006   230+R6       EQU   6                                                        00000013
                            00007   231+R7       EQU   7                                                        00000014
                            00008   232+R8       EQU   8                                                        00000015
                            00009   233+R9       EQU   9                                                        00000016
                            0000A   234+R10      EQU   10                                                       00000017
                            0000B   235+R11      EQU   11                                                       00000018
                            0000C   236+R12      EQU   12                                                       00000019
                            0000D   237+R13      EQU   13                                                       00000020
                            0000E   238+R14      EQU   14                                                       00000021
                            0000F   239+R15      EQU   15                                                       00000022
                            00078   240+ID40001    EQU   *-ID10001                                              00000054
                                    241+*                                                                       00000055
000078 90EC D00C      0000C         242+         STM   14,12,12(13)                                             00000056
                                    243+*                                                                       00000057
00007C 185D                         244+         LR    5,13                COPY CALLER'S SAVEAREA ADDR          00000058
00007E 41DF 0030      00030         245+         LA    13,IDS0001(15)      ESTABLISH MY SAVEAREA                00000059
000082 5050 D004      00004         246+         ST    5,4(,13)            BACK CHAIN SAVE AREAS                00000060
000086 50D0 5008      00008         247+         ST    13,8(,5)            FORWARD CHAIN SAVE AREAS             00000061
00008A 05C0                         248+         BALR  R12,0               ESTABLISH BASE REG VALUE             00000063
                            0008C   249+         USING *,R12                                                    00000064
00008C 1881                         250          LR    R8,R1                  GET PARM ADDRESS
00008E 5880 8000      00000         251          L     R8,0(,R8)
000092 D265 C745 8002 007D1 00002   252          MVC   HDRPARM,2(R8)          SAVE THE PARM
000098 4828 0000      00000         253          LH    R2,0(R8)               GET THE PARM LENGTH
00009C 4132 C745      007D1         254          LA    R3,HDRPARM(R2)
0000A0 927D 3000      00000         255          MVI   0(R3),C''''            FLAG THE END OF PARM
0000A4 4830 C728      007B4         256          LH    R3,HDRLN1
0000A8 1A32                         257          AR    R3,R2
0000AA 4130 3002      00002         258          LA    R3,2(,R3)              ADD FOR THE ENDING QUOTE
0000AE 4030 C728      007B4         259          STH   R3,HDRLN1
         FILEDUMP V1.0.0 - PRINT FILE DUMPS ****                                                               PAGE    4


  LOC  OBJECT CODE    ADDR1 ADDR2  STMT   SOURCE STATEMENT                                       ASM 0201 21.51 03/12/22

                                    260          OPEN  (SYSPRINT,(OUTPUT))    OPEN SYSPRINT
0000B2 0700                         261+         CNOP  0,4                               ALIGN LIST TO FULLWORD 01740001
0000B4 4510 C030      000BC         262+         BAL   1,*+8                             LOAD REG1 W/LIST ADDR. 01780000
0000B8 8F                           263+         DC    AL1(143)                          OPTION BYTE            01900000
0000B9 000754                       264+         DC    AL3(SYSPRINT)                     DCB ADDRESS            01920000
0000BC 0A13                         265+         SVC   19                                ISSUE OPEN SVC         04000000
                                    266          PUT   SYSPRINT,HDRLN1          AND PRINT HEADINGS
0000BE 4110 C6C8      00754         267+         LA    1,SYSPRINT                        LOAD PARAMETER REG 1   01900002
0000C2 4100 C728      007B4         268+         LA    0,HDRLN1                          LOAD PARAMETER REG 0   02500002
0000C6 58F0 1030      00030         269+         L     15,48(0,1)               LOAD PUT ROUTINE ADDR           00550000
0000CA 05EF                         270+         BALR  14,15                    LINK TO PUT ROUTINE             00600000
                                    271          PUT   SYSPRINT,HDRLN2
0000CC 4110 C6C8      00754         272+         LA    1,SYSPRINT                        LOAD PARAMETER REG 1   01900002
0000D0 4100 C7AB      00837         273+         LA    0,HDRLN2                          LOAD PARAMETER REG 0   02500002
0000D4 58F0 1030      00030         274+         L     15,48(0,1)               LOAD PUT ROUTINE ADDR           00550000
0000D8 05EF                         275+         BALR  14,15                    LINK TO PUT ROUTINE             00600000
0000DA 4810 8000      00000         276          LH    R1,0(,R8)
0000DE 4910 CAC0      00B4C         277          CH    R1,=H'1'
0000E2 4740 C426      004B2         278          BL    PARMERR
0000E6 95F1 8002      00002         279          CLI   2(R8),C'1'
0000EA 4740 C426      004B2         280          BL    PARMERR
0000EE 95F3 8002      00002         281          CLI   2(R8),C'3'
0000F2 4720 C426      004B2         282          BH    PARMERR
0000F6 D200 C500 8002 0058C 00002   283          MVC   FMTCD,2(R8)
0000FC 4910 CAC0      00B4C         284          CH    R1,=H'1'               ONLY FORMAT PASSED?
000100 4780 C1AC      00238         285          BE    DEFAULTS                  IF SO, USED DEFAULTS
                                    286 *
                                    287 *   EXTRACT THE NUMBER OF RECORDS TO SKIP IF PRESENT
                                    288 *
000104 956B 8003      00003         289          CLI   3(R8),C','             SECOND POS OF PARM MUST BE ,
000108 4770 C426      004B2         290          BNE   PARMERR
00010C 956B 8004      00004         291          CLI   4(R8),C','             NO SKIP GIVEN?
000110 4780 C104      00190         292          BE    NOSKIP                   BRANCH
000114 4188 0004      00004         293          LA    R8,4(R8)               ADJUST PARM CHAR.
000118 1898                         294          LR    R9,R8
00011A 41A0 0009      00009         295          LA    R10,9
                            0011E   296 FIND1    EQU   *
00011E 9500 9000      00000         297          CLI   0(R9),X'00'            CHECK FOR END OF PARM
000122 4780 C0DE      0016A         298          BE    ENDSKIP
000126 956B 9000      00000         299          CLI   0(R9),C','             CHECK FOR COMMA
00012A 4780 C0DE      0016A         300          BE    ENDSKIP
00012E 95F0 9000      00000         301          CLI   0(R9),C'0'             VALIDATE DIGIS
000132 4740 C0CC      00158         302          BL    BADSKIP
000136 95F9 9000      00000         303          CLI   0(R9),C'9'
00013A 4720 C0CC      00158         304          BH    BADSKIP
00013E 4190 9001      00001         305          LA    R9,1(,R9)
000142 46A0 C092      0011E         306          BCT   R10,FIND1
                                    307          PUT   SYSPRINT,ERRLN3        DATA TOO LONG
000146 4110 C6C8      00754         308+         LA    1,SYSPRINT                        LOAD PARAMETER REG 1   01900002
00014A 4100 C872      008FE         309+         LA    0,ERRLN3                          LOAD PARAMETER REG 0   02500002
00014E 58F0 1030      00030         310+         L     15,48(0,1)               LOAD PUT ROUTINE ADDR           00550000
000152 05EF                         311+         BALR  14,15                    LINK TO PUT ROUTINE             00600000
000154 47F0 C434      004C0         312          B     ABORT16                SKIP EXCEED MAX CHARS
                            00158   313 BADSKIP  EQU   *
                                    314          PUT   SYSPRINT,ERRLN4        DATA TOO LONG
         FILEDUMP V1.0.0 - PRINT FILE DUMPS ****                                                               PAGE    5


  LOC  OBJECT CODE    ADDR1 ADDR2  STMT   SOURCE STATEMENT                                       ASM 0201 21.51 03/12/22

000158 4110 C6C8      00754         315+         LA    1,SYSPRINT                        LOAD PARAMETER REG 1   01900002
00015C 4100 C897      00923         316+         LA    0,ERRLN4                          LOAD PARAMETER REG 0   02500002
000160 58F0 1030      00030         317+         L     15,48(0,1)               LOAD PUT ROUTINE ADDR           00550000
000164 05EF                         318+         BALR  14,15                    LINK TO PUT ROUTINE             00600000
000166 47F0 C434      004C0         319          B     ABORT16                SKIP HAS BAD CHARS
                            0016A   320 ENDSKIP  EQU   *
00016A 18B9                         321          LR    R11,R9                 SAVE ADDRESS OF , ENDING SKIP
00016C 1B98                         322          SR    R9,R8                  COMPUTE LENGTH OF SKIP
00016E 0690                         323          BCTR  R9,R0
000170 41A0 C6C7      00753         324          LA    R10,WORKNUM+WORKNUML-1
000174 1BA9                         325          SR    R10,R9
000176 4490 C19C      00228         326          EX    R9,MVCNUM             MOVE THE SKIP NUM TO
00017A D207 C7C5 C6C0 00851 0074C   327          MVC   HDRSKIP,WORKNUM
000180 F277 C4C4 C6C0 00550 0074C   328          PACK  DWORD,WORKNUM
000186 F847 C1A2 C4C4 0022E 00550   329          ZAP   SKIPRECS,DWORD
00018C 47F0 C108      00194         330          B     TRYDUMP
                            00190   331 NOSKIP   EQU   *
000190 41B0 8004      00004         332          LA    R11,4(,R8)
                                    333 *
                                    334 *   EXTRACT THE NUMBER OF RECORDS TO DUMP IF PRESENT
                                    335 *
                            00194   336 TRYDUMP  EQU   *
000194 4190 B001      00001         337          LA    R9,1(,R11)               ADJUST FOR DUMP COUNT
000198 9500 9000      00000         338          CLI   0(R9),X'00'            NO DUMP GIVEN?
00019C 4780 C1AC      00238         339          BE    NODUMP                   BRANCH
0001A0 956B 9000      00000         340          CLI   0(R9),C','             NO DUMP GIVEN?
0001A4 4780 C1AC      00238         341          BE    NODUMP                   BRANCH
0001A8 1889                         342          LR    R8,R9
0001AA 41A0 0009      00009         343          LA    R10,9
                            001AE   344 FIND2    EQU   *
0001AE 9500 9000      00000         345          CLI   0(R9),X'00'            CHECK FOR END OF PARM
0001B2 4780 C16E      001FA         346          BE    ENDDUMP
0001B6 956B 9000      00000         347          CLI   0(R9),C','             CHECK FOR COMMA
0001BA 4780 C16E      001FA         348          BE    ENDDUMP
0001BE 95F0 9000      00000         349          CLI   0(R9),C'0'             VALIDATE DIGIS
0001C2 4740 C15C      001E8         350          BL    BADDUMP
0001C6 95F9 9000      00000         351          CLI   0(R9),C'9'
0001CA 4720 C15C      001E8         352          BH    BADDUMP
0001CE 4190 9001      00001         353          LA    R9,1(,R9)
0001D2 46A0 C122      001AE         354          BCT   R10,FIND2
                                    355          PUT   SYSPRINT,ERRLN5
0001D6 4110 C6C8      00754         356+         LA    1,SYSPRINT                        LOAD PARAMETER REG 1   01900002
0001DA 4100 C8BB      00947         357+         LA    0,ERRLN5                          LOAD PARAMETER REG 0   02500002
0001DE 58F0 1030      00030         358+         L     15,48(0,1)               LOAD PUT ROUTINE ADDR           00550000
0001E2 05EF                         359+         BALR  14,15                    LINK TO PUT ROUTINE             00600000
0001E4 47F0 C434      004C0         360          B     ABORT16                DUMP EXCEED MAX CHARS
                            001E8   361 BADDUMP  EQU   *
                                    362          PUT   SYSPRINT,ERRLN6
0001E8 4110 C6C8      00754         363+         LA    1,SYSPRINT                        LOAD PARAMETER REG 1   01900002
0001EC 4100 C8E0      0096C         364+         LA    0,ERRLN6                          LOAD PARAMETER REG 0   02500002
0001F0 58F0 1030      00030         365+         L     15,48(0,1)               LOAD PUT ROUTINE ADDR           00550000
0001F4 05EF                         366+         BALR  14,15                    LINK TO PUT ROUTINE             00600000
0001F6 47F0 C434      004C0         367          B     ABORT16                DUMP BAD CHARS
                            001FA   368 ENDDUMP  EQU   *
0001FA 1B98                         369          SR    R9,R8                  COMPUTE LENGTH OF DUMP
         FILEDUMP V1.0.0 - PRINT FILE DUMPS ****                                                               PAGE    6


  LOC  OBJECT CODE    ADDR1 ADDR2  STMT   SOURCE STATEMENT                                       ASM 0201 21.51 03/12/22

0001FC 0690                         370          BCTR  R9,R0
0001FE 92F0 C6C0      0074C         371          MVI   WORKNUM,C'0'
000202 D206 C6C1 C6C0 0074D 0074C   372          MVC   WORKNUM+1(WORKNUML-1),WORKNUM
000208 41A0 C6C7      00753         373          LA    R10,WORKNUM+WORKNUML-1
00020C 1BA9                         374          SR    R10,R9
00020E 4490 C19C      00228         375          EX    R9,MVCNUM             MOVE THE SKIP NUM TO
000212 D207 C7E1 C6C0 0086D 0074C   376          MVC   HDRDUMP,WORKNUM
000218 F277 C4C4 C6C0 00550 0074C   377          PACK  DWORD,WORKNUM
00021E F847 C1A7 C4C4 00233 00550   378          ZAP   MAXRECS,DWORD
000224 47F0 C1AC      00238         379          B     DEFAULTS
000228 D200 A000 8000 00000 00000   380 MVCNUM   MVC   0(0,R10),0(R8)
00022E 000000000C                   381 SKIPRECS DC    PL5'0'
000233 000000000C                   382 MAXRECS  DC    PL5'0'
                            00238   383 NODUMP   EQU   *
                            00238   384 DEFAULTS EQU   *
000238 D507 C7C5 CAA4 00851 00B30   385          CLC   HDRSKIP,=CL8' '
00023E 4770 C1BC      00248         386          BNE   DEFAULT1
000242 D207 C7C5 CAAC 00851 00B38   387          MVC   HDRSKIP,=CL8'NONE'
                            00248   388 DEFAULT1 EQU   *
000248 D507 C7E1 CAA4 0086D 00B30   389          CLC   HDRDUMP,=CL8' '
00024E 4770 C1CC      00258         390          BNE   DEFAULT2
000252 D207 C7E1 CAB4 0086D 00B40   391          MVC   HDRDUMP,=CL8'ALL'
                            00258   392 DEFAULT2 EQU   *
                                    393          PUT   SYSPRINT,HDRLN3
000258 4110 C6C8      00754         394+         LA    1,SYSPRINT                        LOAD PARAMETER REG 1   01900002
00025C 4100 C7B0      0083C         395+         LA    0,HDRLN3                          LOAD PARAMETER REG 0   02500002
000260 58F0 1030      00030         396+         L     15,48(0,1)               LOAD PUT ROUTINE ADDR           00550000
000264 05EF                         397+         BALR  14,15                    LINK TO PUT ROUTINE             00600000
                                    398 *
                            00000   399          USING IHADCB,R11             ESTABLISH BASE FOR DCBD
000266 41B0 C958      009E4         400          LA    R11,INDCB
00026A D207 C7EE B028 0087A 00028   401          MVC   DTLDDN,DCBDDNAM         CAPTURE DDNAME FROM INDCB
                                    402          OPEN  (INDCB,(INPUT))
000270                              403+         CNOP  0,4                               ALIGN LIST TO FULLWORD 01740001
000270 4510 C1EC      00278         404+         BAL   1,*+8                             LOAD REG1 W/LIST ADDR. 01780000
000274 80                           405+         DC    AL1(128)                          OPTION BYTE            01900000
000275 0009E4                       406+         DC    AL3(INDCB)                        DCB ADDRESS            01920000
000278 0A13                         407+         SVC   19                                ISSUE OPEN SVC         04000000
00027A D201 C4DC B052 00568 00052   408          MVC   INLRECL,DCBLRECL        CAPTURE DCB PARMS
000280 D201 C4DE B03E 0056A 0003E   409          MVC   INBLKSI,DCBBLKSI
000286 D200 C4DA B024 00566 00024   410          MVC   INRECFM,DCBRECFM
00028C 45A0 C44C      004D8         411          BAL   R10,PRTDCB
000290 41B0 C9B8      00A44         412          LA    R11,OUTDCB
000294 D207 C7EE B028 0087A 00028   413          MVC   DTLDDN,DCBDDNAM         CAPTURE DDNAME FROM OUTDCB
                                    414          OPEN  (OUTDCB,(OUTPUT))
00029A 0700                         415+         CNOP  0,4                               ALIGN LIST TO FULLWORD 01740001
00029C 4510 C218      002A4         416+         BAL   1,*+8                             LOAD REG1 W/LIST ADDR. 01780000
0002A0 8F                           417+         DC    AL1(143)                          OPTION BYTE            01900000
0002A1 000A44                       418+         DC    AL3(OUTDCB)                       DCB ADDRESS            01920000
0002A4 0A13                         419+         SVC   19                                ISSUE OPEN SVC         04000000
0002A6 D201 C4E2 B052 0056E 00052   420          MVC   OUTLRECL,DCBLRECL       CAPTURE DCB PARMS
0002AC D201 C4E4 B03E 00570 0003E   421          MVC   OUTBLKSI,DCBBLKSI
0002B2 D200 C4E0 B024 0056C 00024   422          MVC   OUTRECFM,DCBRECFM
0002B8 45A0 C44C      004D8         423          BAL   R10,PRTDCB
         FILEDUMP V1.0.0 - PRINT FILE DUMPS ****                                                               PAGE    7


  LOC  OBJECT CODE    ADDR1 ADDR2  STMT   SOURCE STATEMENT                                       ASM 0201 21.51 03/12/22

                                    425 ***********************************************************************
                                    426 *
                                    427 *   GETMAIN STORAGE FOR INPUT RECORD
                                    428 *
                                    429 ***********************************************************************
0002BC 4890 C4DC      00568         430          LH    R9,INLRECL              GET INPUT RECSIZE
0002C0 5090 C4CC      00558         431          ST    R9,GMAINLN
                                    432          GETMAIN R,LV=(R9)
                                    433+*      OS/VS2 RELEASE 4 VERSION -- 10/21/75                             00004804
0002C4 1809                         434+         LR    0,R9                              LOAD LENGTH            00646000
0002C6 4510 C23E      002CA         435+         BAL   1,*+4                             INDICATE GETMAIN       00638002
0002CA 0A0A                         436+         SVC   10                                ISSUE GETMAIN SVC      00820002
0002CC 1891                         437          LR    R9,R1
                            00000   438          USING LND,R9
         FILEDUMP V1.0.0 - PRINT FILE DUMPS ****                                                               PAGE    8


  LOC  OBJECT CODE    ADDR1 ADDR2  STMT   SOURCE STATEMENT                                       ASM 0201 21.51 03/12/22

                                    440 ***********************************************************************
                                    441 *
                                    442 *   DETERMINE RECFM OF INPUT
                                    443 *
                                    444 *   PRINT AN ERROR MESSAGE AND QUIT IF AN INVALID COPY IS ATTEMPTED.
                                    445 *
                                    446 ***********************************************************************
0002CE 41B0 C958      009E4         447          LA    R11,INDCB
0002D2 9180 B024      00024         448          TM    DCBRECFM,DCBRECF         RECFM F?
0002D6 4710 C268      002F4         449          BO    DUMPF
0002DA 9140 B024      00024         450          TM    DCBRECFM,DCBRECV         RECFM V?
0002DE 4710 C268      002F4         451          BO    DUMPF
                                    452          PUT   SYSPRINT,ERRLN1
0002E2 4110 C6C8      00754         453+         LA    1,SYSPRINT                        LOAD PARAMETER REG 1   01900002
0002E6 4100 C819      008A5         454+         LA    0,ERRLN1                          LOAD PARAMETER REG 0   02500002
0002EA 58F0 1030      00030         455+         L     15,48(0,1)               LOAD PUT ROUTINE ADDR           00550000
0002EE 05EF                         456+         BALR  14,15                    LINK TO PUT ROUTINE             00600000
0002F0 47F0 C404      00490         457          B     ERREXIT
         FILEDUMP V1.0.0 - PRINT FILE DUMPS ****                                                               PAGE    9


  LOC  OBJECT CODE    ADDR1 ADDR2  STMT   SOURCE STATEMENT                                       ASM 0201 21.51 03/12/22

                                    459 ***********************************************************************
                                    460 *
                                    461 *   DUMP RECFM F
                                    462 *
                                    463 *   READ, COUNT AND WRITE UNTIL EOF.
                                    464 *
                                    465 ***********************************************************************
                            002F4   466 DUMPF    EQU   *
0002F4 4140 9000      00000         467          LA    R4,LN                   CLEAR RECORD AREA TO SPACES
0002F8 5850 C4CC      00558         468          L     R5,GMAINLN
0002FC 4160 C4E8      00574         469          LA    R6,SPACE
000300 5870 C4E8      00574         470          L     R7,SPACELN
000304 0E46                         471          MVCL  R4,R6
                            00306   472 NEXTF    EQU   *
                                    473          GET   INDCB,LN
000306 4110 C958      009E4         474+         LA    1,INDCB                           LOAD PARAMETER REG 1   01900002
00030A 4100 9000      00000         475+         LA    0,LN                              LOAD PARAMETER REG 0   02500002
00030E 58F0 1030      00030         476+         L     15,48(0,1)               LOAD GET ROUTINE ADDR           00600000
000312 05EF                         477+         BALR  14,15                    LINK TO GET ROUTINE             00625000
000314 FA40 C4D0 CAC2 0055C 00B4E   478          AP    RECCNT,=P'1'
00031A F944 C4D0 C1A2 0055C 0022E   479          CP    RECCNT,SKIPRECS         BYPASS RECORD
000320 47D0 C27A      00306         480          BNH   NEXTF                     IF BEFORE NUMBER TO SKIP
000324 F940 C1A7 CAC3 00233 00B4F   481          CP    MAXRECS,=P'0'
00032A 4780 C2AC      00338         482          BE    BYPASS
00032E F944 C4D5 C1A7 00561 00233   483          CP    RECPRT,MAXRECS
000334 47B0 C3AA      00436         484          BNL   MAXHITS
                            00338   485 BYPASS   EQU   *
000338 FA40 C4D5 CAC2 00561 00B4E   486          AP    RECPRT,=P'1'
                                    487 **                                     CLEAR PRINT AREA TO SPACES
00033E F374 C6A2 C4D0 0072E 0055C   488          UNPK  RECNUM(8),RECCNT         AND FORMAT RECORD LINE
000344 96F0 C6A9      00735         489          OI    RECNUM+7,X'F0'
000348 9140 B024      00024         490          TM    DCBRECFM,DCBRECV         RECFM V?
00034C 4710 C2CC      00358         491          BO    GETRECLN
000350 4850 C4DC      00568         492          LH    R5,INLRECL
000354 47F0 C2D0      0035C         493          B     GOTRECLN
                            00358   494 GETRECLN EQU   *
000358 4850 9000      00000         495          LH    R5,LN                    GET RECLN FROM RDW
                            0035C   496 GOTRECLN EQU   *
00035C 4E50 C4C4      00550         497          CVD   R5,DWORD
000360 F342 C6B2 C4C9 0073E 00555   498          UNPK  RECLEN,DWORD+5(3)
000366 96F0 C6B6      00742         499          OI    RECLEN+4,X'F0'
00036A 9240 C508      00594         500          MVI   FMTLN1,C' '
00036E D284 C509 C508 00595 00594   501          MVC   FMTLN1+1(L'FMTLN1-1),FMTLN1
000374 D21C C508 C69A 00594 00726   502          MVC   FMTLN1(RECHDR1L),RECHDR1
                                    503          PUT   OUTDCB,FMTLN1
00037A 4110 C9B8      00A44         504+         LA    1,OUTDCB                          LOAD PARAMETER REG 1   01900002
00037E 4100 C508      00594         505+         LA    0,FMTLN1                          LOAD PARAMETER REG 0   02500002
000382 58F0 1030      00030         506+         L     15,48(0,1)               LOAD PUT ROUTINE ADDR           00550000
000386 05EF                         507+         BALR  14,15                    LINK TO PUT ROUTINE             00600000
000388 9240 C508      00594         508          MVI   FMTLN1,C' '
00038C D284 C509 C508 00595 00594   509          MVC   FMTLN1+1(L'FMTLN1-1),FMTLN1
                                    510          PUT   OUTDCB,FMTLN1           PRINT BLANK LINE
000392 4110 C9B8      00A44         511+         LA    1,OUTDCB                          LOAD PARAMETER REG 1   01900002
000396 4100 C508      00594         512+         LA    0,FMTLN1                          LOAD PARAMETER REG 0   02500002
00039A 58F0 1030      00030         513+         L     15,48(0,1)               LOAD PUT ROUTINE ADDR           00550000
         FILEDUMP V1.0.0 - PRINT FILE DUMPS ****                                                               PAGE   10


  LOC  OBJECT CODE    ADDR1 ADDR2  STMT   SOURCE STATEMENT                                       ASM 0201 21.51 03/12/22

00039E 05EF                         514+         BALR  14,15                    LINK TO PUT ROUTINE             00600000
                                    515 *
                                    516 *  SET UP TO DUMP THE RECORD
                                    517 *      R4=RECORD POS,   R5=RECORD LEN,  R6=OFFSET
                                    518 *      R7=MAX CHARS PER PRINT LINE
                                    519 *
0003A0 4140 9000      00000         520          LA    R4,LN
0003A4 4160 0000      00000         521          LA    R6,0
0003A8 95F1 C500      0058C         522          CLI   FMTCD,C'1'
0003AC 4770 C32C      003B8         523          BNE   NOT1
0003B0 4170 0020      00020         524          LA    R7,32
0003B4 47F0 C340      003CC         525          B     FSTART
                            003B8   526 NOT1     EQU   *
0003B8 95F2 C500      0058C         527          CLI   FMTCD,C'2'
0003BC 4770 C33C      003C8         528          BNE   NOT2
0003C0 4170 003C      0003C         529          LA    R7,60
0003C4 47F0 C340      003CC         530          B     FSTART
                            003C8   531 NOT2     EQU   *
0003C8 4170 0078      00078         532          LA    R7,120
                            003CC   533 FSTART   EQU   *
                            003CC   534 FSHORT   EQU   *
0003CC 1957                         535          CR    R5,R7
0003CE 4720 C348      003D4         536          BH    FDUMP
0003D2 1875                         537          LR    R7,R5               SET UP SHORT LINE
                            003D4   538 FDUMP    EQU   *
0003D4 4070 C502      0058E         539          STH   R7,FMTLN
0003D8 5040 C4F4      00580         540          ST    R4,SNAPRADR
0003DC 5060 C504      00590         541          ST    R6,FMTOFS
0003E0 4110 C4EC      00578         542          LA    R1,SNAPRFP
0003E4 58F0 CABC      00B48         543          L     R15,=V(SNAPFR)
0003E8 05EF                         544          BALR  R14,R15
                                    545          PUT   OUTDCB,FMTLN1
0003EA 4110 C9B8      00A44         546+         LA    1,OUTDCB                          LOAD PARAMETER REG 1   01900002
0003EE 4100 C508      00594         547+         LA    0,FMTLN1                          LOAD PARAMETER REG 0   02500002
0003F2 58F0 1030      00030         548+         L     15,48(0,1)               LOAD PUT ROUTINE ADDR           00550000
0003F6 05EF                         549+         BALR  14,15                    LINK TO PUT ROUTINE             00600000
0003F8 95F1 C500      0058C         550          CLI   FMTCD,C'1'
0003FC 4780 C398      00424         551          BE    PRSKIP
                                    552          PUT   OUTDCB,FMTLN2
000400 4110 C9B8      00A44         553+         LA    1,OUTDCB                          LOAD PARAMETER REG 1   01900002
000404 4100 C58E      0061A         554+         LA    0,FMTLN2                          LOAD PARAMETER REG 0   02500002
000408 58F0 1030      00030         555+         L     15,48(0,1)               LOAD PUT ROUTINE ADDR           00550000
00040C 05EF                         556+         BALR  14,15                    LINK TO PUT ROUTINE             00600000
00040E 95F2 C500      0058C         557          CLI   FMTCD,C'2'
000412 4780 C398      00424         558          BE    PRSKIP
                                    559          PUT   OUTDCB,FMTLN3
000416 4110 C9B8      00A44         560+         LA    1,OUTDCB                          LOAD PARAMETER REG 1   01900002
00041A 4100 C614      006A0         561+         LA    0,FMTLN3                          LOAD PARAMETER REG 0   02500002
00041E 58F0 1030      00030         562+         L     15,48(0,1)               LOAD PUT ROUTINE ADDR           00550000
000422 05EF                         563+         BALR  14,15                    LINK TO PUT ROUTINE             00600000
                            00424   564 PRSKIP   EQU   *
000424 4147 4000      00000         565          LA    R4,0(R7,R4)            CALC NEXT CHARS TO DUMP
000428 4167 6000      00000         566          LA    R6,0(R7,R6)
00042C 1B57                         567          SR    R5,R7
00042E 4720 C340      003CC         568          BH    FSHORT
         FILEDUMP V1.0.0 - PRINT FILE DUMPS ****                                                               PAGE   11


  LOC  OBJECT CODE    ADDR1 ADDR2  STMT   SOURCE STATEMENT                                       ASM 0201 21.51 03/12/22

000432 47F0 C27A      00306         569          B     NEXTF
         FILEDUMP V1.0.0 - PRINT FILE DUMPS ****                                                               PAGE   12


  LOC  OBJECT CODE    ADDR1 ADDR2  STMT   SOURCE STATEMENT                                       ASM 0201 21.51 03/12/22

                            00436   571 MAXHITS  EQU   *
                                    572          PUT   SYSPRINT,FTRLN3
000436 4110 C6C8      00754         573+         LA    1,SYSPRINT                        LOAD PARAMETER REG 1   01900002
00043A 4100 C93D      009C9         574+         LA    0,FTRLN3                          LOAD PARAMETER REG 0   02500002
00043E 58F0 1030      00030         575+         L     15,48(0,1)               LOAD PUT ROUTINE ADDR           00550000
000442 05EF                         576+         BALR  14,15                    LINK TO PUT ROUTINE             00600000
000444 47F0 C3CA      00456         577          B     MAXEXIT
                            00448   578 EOFIN    EQU   *
                                    579          PUT   SYSPRINT,FTRLN1
000448 4110 C6C8      00754         580+         LA    1,SYSPRINT                        LOAD PARAMETER REG 1   01900002
00044C 4100 C904      00990         581+         LA    0,FTRLN1                          LOAD PARAMETER REG 0   02500002
000450 58F0 1030      00030         582+         L     15,48(0,1)               LOAD PUT ROUTINE ADDR           00550000
000454 05EF                         583+         BALR  14,15                    LINK TO PUT ROUTINE             00600000
                            00456   584 MAXEXIT  EQU   *
000456 F384 C923 C4D5 009AF 00561   585          UNPK  FTRRECS,RECPRT
00045C 96F0 C92B      009B7         586          OI    FTRRECS+8,X'F0'
                                    587          PUT   SYSPRINT,FTRLN2
000460 4110 C6C8      00754         588+         LA    1,SYSPRINT                        LOAD PARAMETER REG 1   01900002
000464 4100 C91E      009AA         589+         LA    0,FTRLN2                          LOAD PARAMETER REG 0   02500002
000468 58F0 1030      00030         590+         L     15,48(0,1)               LOAD PUT ROUTINE ADDR           00550000
00046C 05EF                         591+         BALR  14,15                    LINK TO PUT ROUTINE             00600000
                                    592          CLOSE (SYSPRINT,,INDCB,,OUTDCB)
00046E 0700                         593+         CNOP  0,4                               ALIGN LIST TO FULLWORD 02420002
000470 4510 C3F4      00480         594+         BAL   1,*+16                            LOAD REG1 W/LIST ADDR  02460002
000474 00                           595+         DC    AL1(0)                            OPTION BYTE            02580000
000475 000754                       596+         DC    AL3(SYSPRINT)                     DCB ADDRESS            02600000
000478 00                           597+         DC    AL1(0)                            OPTION BYTE            02580000
000479 0009E4                       598+         DC    AL3(INDCB)                        DCB ADDRESS            02600000
00047C 80                           599+         DC    AL1(128)                          OPTION BYTE            02580000
00047D 000A44                       600+         DC    AL3(OUTDCB)                       DCB ADDRESS            02600000
000480 0A14                         601+         SVC   20                                ISSUE CLOSE SVC        01640000
                                    602          ERETURN RC=0
000482 58D0 D004      00004         603+         L     13,4(0,13)          RESET TO CALLERS SAVE AREA           00000004
000486 98EC D00C      0000C         604+         LM    14,12,12(13)                      RESTORE THE REGISTERS  00650000
00048A 41F0 0000      00000         605+         LA    15,0(0,0)                         LOAD RETURN CODE       01750000
00048E 07FE                         606+         BR    14                                RETURN                 02000000
                            00490   607 ERREXIT  EQU   *
                                    608          PUT   SYSPRINT,ERRLN1
000490 4110 C6C8      00754         609+         LA    1,SYSPRINT                        LOAD PARAMETER REG 1   01900002
000494 4100 C819      008A5         610+         LA    0,ERRLN1                          LOAD PARAMETER REG 0   02500002
000498 58F0 1030      00030         611+         L     15,48(0,1)               LOAD PUT ROUTINE ADDR           00550000
00049C 05EF                         612+         BALR  14,15                    LINK TO PUT ROUTINE             00600000
                                    613          CLOSE (SYSPRINT,,INDCB,,OUTDCB)
00049E 0700                         614+         CNOP  0,4                               ALIGN LIST TO FULLWORD 02420002
0004A0 4510 C424      004B0         615+         BAL   1,*+16                            LOAD REG1 W/LIST ADDR  02460002
0004A4 00                           616+         DC    AL1(0)                            OPTION BYTE            02580000
0004A5 000754                       617+         DC    AL3(SYSPRINT)                     DCB ADDRESS            02600000
0004A8 00                           618+         DC    AL1(0)                            OPTION BYTE            02580000
0004A9 0009E4                       619+         DC    AL3(INDCB)                        DCB ADDRESS            02600000
0004AC 80                           620+         DC    AL1(128)                          OPTION BYTE            02580000
0004AD 000A44                       621+         DC    AL3(OUTDCB)                       DCB ADDRESS            02600000
0004B0 0A14                         622+         SVC   20                                ISSUE CLOSE SVC        01640000
                            004B2   623 ERREXIT2 EQU   *
                            004B2   624 PARMERR  EQU   *
                                    625          PUT   SYSPRINT,ERRLN2
         FILEDUMP V1.0.0 - PRINT FILE DUMPS ****                                                               PAGE   13


  LOC  OBJECT CODE    ADDR1 ADDR2  STMT   SOURCE STATEMENT                                       ASM 0201 21.51 03/12/22

0004B2 4110 C6C8      00754         626+         LA    1,SYSPRINT                        LOAD PARAMETER REG 1   01900002
0004B6 4100 C840      008CC         627+         LA    0,ERRLN2                          LOAD PARAMETER REG 0   02500002
0004BA 58F0 1030      00030         628+         L     15,48(0,1)               LOAD PUT ROUTINE ADDR           00550000
0004BE 05EF                         629+         BALR  14,15                    LINK TO PUT ROUTINE             00600000
                                    630 ABORT16  CLOSE (SYSPRINT)
0004C0                              631+         CNOP  0,4                               ALIGN LIST TO FULLWORD 02420002
0004C0 4510 C43C      004C8         632+ABORT16  BAL   1,*+8                             LOAD REG1 W/LIST ADDR  02460002
0004C4 80                           633+         DC    AL1(128)                          OPTION BYTE            02580000
0004C5 000754                       634+         DC    AL3(SYSPRINT)                     DCB ADDRESS            02600000
0004C8 0A14                         635+         SVC   20                                ISSUE CLOSE SVC        01640000
                                    636          ERETURN RC=16
0004CA 58D0 D004      00004         637+         L     13,4(0,13)          RESET TO CALLERS SAVE AREA           00000004
0004CE 98EC D00C      0000C         638+         LM    14,12,12(13)                      RESTORE THE REGISTERS  00650000
0004D2 41F0 0010      00010         639+         LA    15,16(0,0)                        LOAD RETURN CODE       01750000
0004D6 07FE                         640+         BR    14                                RETURN                 02000000
                            004D8   641 PRTDCB   EQU   *
0004D8 9180 B024      00024         642          TM    DCBRECFM,DCBRECF         RECFM F?
0004DC 4710 C46E      004FA         643          BO    FIXIN
0004E0 9140 B024      00024         644          TM    DCBRECFM,DCBRECV         RECFM V?
0004E4 4710 C476      00502         645          BO    VARIN
                                    646          PUT   SYSPRINT,ERRLN1
0004E8 4110 C6C8      00754         647+         LA    1,SYSPRINT                        LOAD PARAMETER REG 1   01900002
0004EC 4100 C819      008A5         648+         LA    0,ERRLN1                          LOAD PARAMETER REG 0   02500002
0004F0 58F0 1030      00030         649+         L     15,48(0,1)               LOAD PUT ROUTINE ADDR           00550000
0004F4 05EF                         650+         BALR  14,15                    LINK TO PUT ROUTINE             00600000
0004F6 47F0 C404      00490         651          B     ERREXIT
                            004FA   652 FIXIN    EQU   *
0004FA 92C6 C7FD      00889         653          MVI   DTLRF1,C'F'
0004FE 47F0 C47E      0050A         654          B     BLKTEST
                            00502   655 VARIN    EQU   *
000502 92E5 C7FD      00889         656          MVI   DTLRF1,C'V'
000506 47F0 C47E      0050A         657          B     BLKTEST
                            0050A   658 BLKTEST  EQU   *
00050A 9240 C7FE      0088A         659          MVI   DTLRF2,C' '
00050E 9110 B024      00024         660          TM    DCBRECFM,DCBRECBR        BLOCKED?
000512 4780 C48E      0051A         661          BZ    ASATST
000516 92C2 C7FE      0088A         662          MVI   DTLRF2,C'B'
                            0051A   663 ASATST   EQU   *
                            0051A   664 FMTRECL  EQU   *
00051A 4820 B052      00052         665          LH    R2,DCBLRECL
00051E 4E20 C4C4      00550         666          CVD   R2,DWORD
000522 960F C4CB      00557         667          OI    DWORD+7,X'0F'
000526 F342 C806 C4C9 00892 00555   668          UNPK  DTLRECL,DWORD+5(3)
00052C 4820 B03E      0003E         669          LH    R2,DCBBLKSI
000530 4E20 C4C4      00550         670          CVD   R2,DWORD
000534 960F C4CB      00557         671          OI    DWORD+7,X'0F'
000538 F342 C814 C4C9 008A0 00555   672          UNPK  DTLBLKSI,DWORD+5(3)
                                    673 *
                                    674          PUT   SYSPRINT,DTLLN1
00053E 4110 C6C8      00754         675+         LA    1,SYSPRINT                        LOAD PARAMETER REG 1   01900002
000542 4100 C7E9      00875         676+         LA    0,DTLLN1                          LOAD PARAMETER REG 0   02500002
000546 58F0 1030      00030         677+         L     15,48(0,1)               LOAD PUT ROUTINE ADDR           00550000
00054A 05EF                         678+         BALR  14,15                    LINK TO PUT ROUTINE             00600000
00054C 07FA                         679          BR    R10
000550                              680 DWORD    DS    D
         FILEDUMP V1.0.0 - PRINT FILE DUMPS ****                                                               PAGE   14


  LOC  OBJECT CODE    ADDR1 ADDR2  STMT   SOURCE STATEMENT                                       ASM 0201 21.51 03/12/22

000558                              681 GMAINLN  DS    F
00055C 000000000C                   682 RECCNT   DC    PL5'0'
000561 000000000C                   683 RECPRT   DC    PL5'0'
000566                              684 INRECFM  DS    CL1
000568                              685 INLRECL  DS    H
00056A                              686 INBLKSI  DS    H
00056C                              687 OUTRECFM DS    CL1
00056E                              688 OUTLRECL DS    H
000570                              689 OUTBLKSI DS    H
000574                              690 SPACELN  DS    0F
000574 40                           691 SPACE    DC    C' '
000575 000000                       692          DC    AL3(0)
                                    693 SNAP     SNAPARM FMTCD,FMTLN,0,FMTLN1,FMTOFS
                                    694+**
                                    695+**    WORK AREAS FOR PARMS TO SNAPRF
                                    696+**
000578                              697+SNAPRFP   DS    0F              EXPECTED DATA ITEMS
000578 0000058C                     698+SNAPRFMT  DC    A(FMTCD)           CL1    FORMAT CODE (1,2, OR 3)
00057C 0000058E                     699+SNAPRFLN  DC    A(FMTLN)           H      NUMBER OF BYTES TO DISPLAY
000580 00000000                     700+SNAPRADR  DC    A(0)               A      AREA TO DISPLAY
000584 00000594                     701+SNAPROUT  DC    A(FMTLN1)          3CL134 PRINT LINE(S) AREA
000588 80                           702+SNAPROFS  DC    X'80'
000589 000590                       703+          DC    AL3(FMTOFS)        F      PRINT OFFSET
00058C                              704 FMTCD    DS    C
00058E                              705 FMTLN    DS    H
000590                              706 FMTOFS   DS    F
000594                              707 FMTLN1   DS    CL134
00061A                              708 FMTLN2   DS    CL134
0006A0                              709 FMTLN3   DS    CL134
000726 F0D9C5C3D6D9C440             710 RECHDR1  DC    C'0RECORD '
00072E                              711 RECNUM   DS    CL8
000736 4040D3D9C5C3D37E             712          DC    C'  LRECL='
00073E 5C5C5C5C5C                   713 RECLEN   DC    CL5'*****'
                            0001D   714 RECHDR1L EQU   *-RECHDR1
000743 40E6D6D9D2D5E4D4             715          DC    C' WORKNUM='
00074C F0F0F0F0F0F0F0F0             716 WORKNUM  DC    CL8'00000000'
                            00008   717 WORKNUML EQU   *-WORKNUM
                                    718 **
                                    719 **   SYSPRINT MESSAGES AREA
                                    720 **
                                    721 SYSPRINT DCB   DDNAME=SYSPRINT,MACRF=(PM),DSORG=PS,                    *
                                                       RECFM=VBA,LRECL=121,BLKSIZE=1210


                                    723+*                       DATA CONTROL BLOCK                              22770000
                                    724+*                                                                       22860000
000754                              725+SYSPRINT DC    0F'0'                   ORIGIN ON WORD BOUNDARY          22914000

                                    727+*                       DIRECT ACCESS DEVICE INTERFACE                  27360000

000754 0000000000000000             729+         DC    BL16'0'                  FDAD,DVTBL                      27540000
000764 00000000                     730+         DC    A(0)                     KEYLE,DEVT,TRBAL                27720000

                                    732+*                       COMMON ACCESS METHOD INTERFACE                  48690000
         FILEDUMP V1.0.0 - PRINT FILE DUMPS ****                                                               PAGE   15


  LOC  OBJECT CODE    ADDR1 ADDR2  STMT   SOURCE STATEMENT                                       ASM 0201 21.51 03/12/22

000768 00                           734+         DC    AL1(0)                  BUFNO                            49050000
000769 000001                       735+         DC    AL3(1)                  BUFCB                            54720000
00076C 0000                         736+         DC    AL2(0)             BUFL                                  55170000
00076E 4000                         737+         DC    BL2'0100000000000000'                                   *55800000
                                       +                                                 DSORG                  55890000
000770 00000001                     738+         DC    A(1)                     IOBAD                           56340000

                                    740+*                       FOUNDATION EXTENSION                            56610000

000774 00                           742+         DC    BL1'00000000'                  BFTEK,BFLN,HIARCHY        59850000
000775 000001                       743+         DC    AL3(1)                  EODAD                            65970000
000778 54                           744+         DC    BL1'01010100'                                           *66150000
                                       +                                       RECFM                            66240000
000779 000000                       745+         DC    AL3(0)                  EXLST                            66330000

                                    747+*                       FOUNDATION BLOCK                                66690000

00077C E2E8E2D7D9C9D5E3             749+         DC    CL8'SYSPRINT'           DDNAME                           66870000
000784 02                           750+         DC    BL1'00000010'           OFLGS                            68220000
000785 00                           751+         DC    BL1'00000000'                          IFLG              68310000
000786 0050                         752+         DC    BL2'0000000001010000'                                   *68400000
                                       +                                                                       *68490000
                                       +                                       MACR                             68580000

                                    754+*                       BSAM-BPAM-QSAM INTERFACE                        74430000

000788 00                           756+         DC    BL1'00000000'                                           *74610000
                                       +                                                                   RER1 74700000
000789 000001                       757+         DC    AL3(1)                  CHECK, GERR, PERR                74790000
00078C 00000001                     758+         DC    A(1)                    SYNAD                            74880000
000790 0000                         759+         DC    H'0'                    CIND1, CIND2                     74970000
000792 04BA                         760+         DC    AL2(1210)               BLKSIZE                          75240000
000794 00000000                     761+         DC    F'0'                    WCPO, WCPL, OFFSR, OFFSW         75870000
000798 00000001                     762+         DC    A(1)                    IOBA                             75960000
00079C 00                           763+         DC    AL1(0)                  NCP                              76050000
00079D 000001                       764+         DC    AL3(1)                  EOBR, EOBAD                      76140000

                                    766+*                            QSAM INTERFACE                             81450000

0007A0 00000001                     768+         DC    A(1)                     RECAD                           81630000
0007A4 0000                         769+         DC    H'0'                    QSWS                             81810000
0007A6 0079                         770+         DC    AL2(121)       LRECL                                     80730000
0007A8 00                           771+         DC    BL1'00000000'           EROPT                            82530000
0007A9 000001                       772+         DC    AL3(1)                  CNTRL                            82620000
0007AC 00000000                     773+         DC    F'0'                    PRECL                            82710000
0007B0 00000001                     774+         DC    A(1)                    EOB                              82800000
                                    775 ********
0007B4                              776          DS    0H
0007B4 001D                         777 HDRLN1   DC    AL2(HDRLN1L)
0007B6 0000                         778          DC    AL2(0)
0007B8 F1C6C9D3C5C4E4D4             779          DC    C'1FILEDUMP V1.0.0'
0007C8 404040D7C1D9D47E             780          DC    C'   PARM='''
                            0001D   781 HDRLN1L  EQU   *-HDRLN1
0007D1                              782 HDRPARM  DS    CL102
                                    783 ********
         FILEDUMP V1.0.0 - PRINT FILE DUMPS ****                                                               PAGE   16


  LOC  OBJECT CODE    ADDR1 ADDR2  STMT   SOURCE STATEMENT                                       ASM 0201 21.51 03/12/22

000837 0005                         784 HDRLN2   DC    AL2(HDRLN2L)
000839 0000                         785          DC    AL2(0)
00083B 40                           786          DC    C' '
                            00005   787 HDRLN2L  EQU   *-HDRLN2
                                    788 ********
00083C 0039                         789 HDRLN3   DC    AL2(HDRLN3L)
00083E 0000                         790          DC    AL2(0)
000840 40D9C5C3D6D9C4E2             791          DC    C' RECORDS TO SKIP '
000851 4040404040404040             792 HDRSKIP  DC    CL8' '
000859 6BD9C5C3D6D9C4E2             793          DC    C',RECORDS TO PROCESS '
00086D 4040404040404040             794 HDRDUMP  DC    CL8' '
                            00039   795 HDRLN3L  EQU   *-HDRLN3
                                    796 ********
000875 0030                         797 DTLLN1   DC    AL2(DTLLN1L)
000877 0000                         798          DC    AL2(0)
000879 40                           799          DC    C' '
00087A 4040404040404040             800 DTLDDN   DC    CL8' '
000882 40D9C5C3C6D47E               801          DC    CL7' RECFM='
000889 40                           802 DTLRF1   DC    C' '
00088A 40                           803 DTLRF2   DC    C' '
00088B 40D3D9C5C3D37E               804          DC    C' LRECL='
000892                              805 DTLRECL  DS    CL5
000897 40C2D3D2E2C9E9C5             806          DC    C' BLKSIZE='
0008A0                              807 DTLBLKSI DS    CL5
                            00030   808 DTLLN1L  EQU   *-DTLLN1
                                    809 ********
0008A5 0027                         810 ERRLN1   DC    AL2(ERRLN1L)
0008A7 0000                         811          DC    AL2(0)
0008A9 40C5D9D9D6D94060             812          DC    C' ERROR - INPUT MUST BE RECFM F OR V'
                            00027   813 ERRLN1L  EQU   *-ERRLN1
                                    814 ********
0008CC 0032                         815 ERRLN2   DC    AL2(ERRLN2L)
0008CE 0000                         816          DC    AL2(0)
0008D0 40C5D9D9D6D94060             817          DC    C' ERROR - EXEC PARM INVALID - MUST BE 1, 2 OR 3'
                            00032   818 ERRLN2L  EQU   *-ERRLN2
                                    819 ********
0008FE 0025                         820 ERRLN3   DC    AL2(ERRLN3L)
000900 0000                         821          DC    AL2(0)
000902 40C5D9D9D6D94060             822          DC    C' ERROR - RECORDS TO SKIP TOO LONG'
                            00025   823 ERRLN3L  EQU   *-ERRLN3
                                    824 ********
000923 0024                         825 ERRLN4   DC    AL2(ERRLN4L)
000925 0000                         826          DC    AL2(0)
000927 40C5D9D9D6D94060             827          DC    C' ERROR - INVALID RECORDS TO SKIP'
                            00024   828 ERRLN4L  EQU   *-ERRLN4
                                    829 ********
000947 0025                         830 ERRLN5   DC    AL2(ERRLN5L)
000949 0000                         831          DC    AL2(0)
00094B 40C5D9D9D6D94060             832          DC    C' ERROR - RECORDS TO DUMP TOO LONG'
                            00025   833 ERRLN5L  EQU   *-ERRLN5
                                    834 ********
00096C 0024                         835 ERRLN6   DC    AL2(ERRLN6L)
00096E 0000                         836          DC    AL2(0)
000970 40C5D9D9D6D94060             837          DC    C' ERROR - INVALID RECORDS TO DUMP'
                            00024   838 ERRLN6L  EQU   *-ERRLN6
         FILEDUMP V1.0.0 - PRINT FILE DUMPS ****                                                               PAGE   17


  LOC  OBJECT CODE    ADDR1 ADDR2  STMT   SOURCE STATEMENT                                       ASM 0201 21.51 03/12/22

                                    839 ********
000990 001A                         840 FTRLN1   DC    AL2(FTRLN1L)
000992 0000                         841          DC    AL2(0)
000994 40C5D5C440D6C640             842          DC    C' END OF FILE ON SYSUT1'
                            0001A   843 FTRLN1L  EQU   *-FTRLN1
                                    844 ********
0009AA 001F                         845 FTRLN2   DC    AL2(FTRLN2L)
0009AC 0000                         846          DC    AL2(0)
0009AE 40                           847          DC    C' '
0009AF 4040404040404040             848 FTRRECS  DC    CL9'        '
0009B8 40D9C5C3D6D9C44D             849          DC    C' RECORD(S) DUMPED'
                            0001F   850 FTRLN2L  EQU   *-FTRLN2
                                    851 ********
0009C9 001B                         852 FTRLN3   DC    AL2(FTRLN3L)
0009CB 0000                         853          DC    AL2(0)
0009CD 40D4C1E7C9D4E4D4             854          DC    C' MAXIMUM RECORDS DUMPED'
                            0001B   855 FTRLN3L  EQU   *-FTRLN3
                                    856          PRINT NOGEN
                                    857 INDCB    DCB   DDNAME=SYSUT1,MACRF=(GM),EODAD=EOFIN,DSORG=PS
                                    911 OUTDCB   DCB   DDNAME=SYSUT2,MACRF=(PM),DSORG=PS,                      *
                                                       RECFM=FBA,LRECL=133,BLKSIZE=133
                                    965          PRINT GEN
000AA4 4040404040404040             966 PLN      DC    CL133' '
000B30                              967          LTORG
000B30 4040404040404040             968                =CL8' '
000B38 D5D6D5C540404040             969                =CL8'NONE'
000B40 C1D3D34040404040             970                =CL8'ALL'
000B48 00000000                     971                =V(SNAPFR)
000B4C 0001                         972                =H'1'
000B4E 1C                           973                =P'1'
000B4F 0C                           974                =P'0'
000B50                              975          DS    0D
000000                              976 LND      DSECT
000000                              977 LN       DS    CL32767
                                    978 DDCB     DCBD  DSORG=PS
                                    979+*,***  IHB069  DEVD NOT SPECIFIED-ALL ASSUMED


                                    981+*                       DCB SYMBOLIC DEFINITION FOR                     07700000
                                    982+*                       PHYSICAL SEQUENTIAL                             07900000


000000                              984+IHADCB   DSECT , -            DCBPTR                           @ZA05613 09851000


                                    986+*********************************************************************** 09853000
                                    987+*  OS/VS2 RELEASE 02, 02/14/73                                        * 09854000
                                    988+*  OS/VS2 RELEASE 03, 10/23/74                                        * 09855000
                                    989+*  OS/VS2 RELEASE 3.7, 3/15/78                                        * 09856000
                                    990+*C80400037                                                     @ZA33630 09886000
                                    991+*                                                                     * 09902100
                                    992+*  OS/VS2 RELEASE 3.8, 5/15/80    FMID=FDM1133                        * 09909000
                                    993+*                                                                     * 09915900
                                    994+*C(116500),A(116638-116914),D(117000),A(117052-117466)         @ZA46311 09922800
                                    995+*D(117500),A(117604-117880),D(118000),A(118018-118432)         @ZA46311 09929700
         FILEDUMP V1.0.0 - PRINT FILE DUMPS ****                                                               PAGE   18


  LOC  OBJECT CODE    ADDR1 ADDR2  STMT   SOURCE STATEMENT                                       ASM 0201 21.51 03/12/22

                                    996+*D(118500-118510),A(118570-118846)                             @ZA46311 09936600
                                    997+*$F01=UZ59799,FDM1133:DCBDEVT DEFINITION FOR D/T3375 AND D/T3380  @F01A 09940000
                                    998+*                                                                     * 09943500
                                    999+*********************************************************************** 09950700

                            00080  1001+DCBBIT0  EQU   128                                             @ZA05613 09951000
                            00040  1002+DCBBIT1  EQU   64                                              @ZA05613 09951100
                            00020  1003+DCBBIT2  EQU   32                                              @ZA05613 09951200
                            00010  1004+DCBBIT3  EQU   16                                              @ZA05613 09951300
                            00008  1005+DCBBIT4  EQU   8                                               @ZA05613 09951400
                            00004  1006+DCBBIT5  EQU   4                                               @ZA05613 09951500
                            00002  1007+DCBBIT6  EQU   2                                               @ZA05613 09951600
                            00001  1008+DCBBIT7  EQU   1                                               @ZA05613 09951700

                                   1010+*********************************************************************** 09951900


                                   1012+*********************************************************************** 10301000
                                   1013+*                       DEVICE INTERFACES                               10350000
                                   1014+*********************************************************************** 10351000

                                   1016+*********************************************************************** 10451000
                                   1017+*                       DIRECT ACCESS DEVICES                           10500000
                                   1018+*********************************************************************** 10501000

000000                             1020+DCBRELAD DS    CL4 -          PARTITIONED ORGANIZATION DATA SET -       10600000
                                   1021+*                             ADDRESS (IN THE FORM TTRN) OF MEMBER      10650000
                                   1022+*                             CURRENTLY USED.  ---                      10700000
                                   1023+*                             SYS1.LOGREC DATA SET - IF CCH OPTION HAS  10750000
                                   1024+*                             BEEN SPECIFIED IN SYSGEN PROCESS, ADDRESS 10800000
                                   1025+*                             OF A 12-BYTE PARAMETER IN THE EXPANSION   10850000
                                   1026+*                             OF MACRO INSTRUCTION IGFCATAP             10900000
000004                             1027+DCBKEYCN DS    FL1 -          KEYED BLOCK OVERHEAD CONSTANT             10950000
000005                             1028+DCBFDAD  DS    CL8 -          FULL DISK ADDRESS IN THE FORM OF MBBCCHHR 11000000
                                   1029+*                             OF RECORD THAT WAS JUST READ OR WRITTEN   11050000

00000D                      0000C  1031+         ORG   DCBFDAD+7                                                11150000
00000C                             1032+DCBDVTBL DS    0A -           SAME AS DCBDVTBA BELOW                    11200000
00000C                             1033+         DS    X -            LAST BYTE OF DCBFDAD                      11250000
00000D                             1034+DCBDVTBA DS    AL3 -          ADDRESS OF ENTRY IN I/O DEVICE            11300000
                                   1035+*                             CHARACTERISTICS TABLE FOR DEVICE BEING    11350000
                                   1036+*                             USED                                      11400000
000010                             1037+         DS    FL1 -          DCBKEYLE - KEY LENGTH OF DATA SET         11450000
000011                             1038+         DS    C -            DCBDEVT - DEVICE TYPE                     11500000
                                   1039+*   FOR MASKS FOR ISAM DIRECT ACCESS, SEE DCBOVDEV IN ISAM SECTION      11550000
                            00021  1040+DCBDV311 EQU   X'21' -        2311 DISK STORAGE                @ZA46311 11650000
                            00022  1041+DCBDV301 EQU   X'22' -        2301 PARALLEL DRUM                        11663800
                            00023  1042+DCBDV303 EQU   X'23' -        2303 SERIAL DRUM                          11677600
                            00024  1043+DCBDV302 EQU   X'24' -        2302 DISK STORAGE                         11691400
                            00025  1044+DCBDV321 EQU   X'25' -        2321 DATA CELL STORAGE           @ZA46311 11705200
                            00026  1045+DCBD1305 EQU   X'26' -        2305 DRUM MODEL-1                @ZA46311 11719000
                            00027  1046+DCBDV305 EQU   X'27' -        2305 DRUM MODEL-2                @ZA46311 11732800
                            00028  1047+DCBDV314 EQU   X'28' -        2314/2319 DISK STORAGE FACILITY  @ZA46311 11746600
                            00029  1048+DCBDV330 EQU   X'29' -        3330 DISK STORAGE FACILITY       @ZA46311 11760400
                                   1049+*                             3330 MODEL-1                     @ZA46311 11774200
         FILEDUMP V1.0.0 - PRINT FILE DUMPS ****                                                               PAGE   19


  LOC  OBJECT CODE    ADDR1 ADDR2  STMT   SOURCE STATEMENT                                       ASM 0201 21.51 03/12/22

                                   1050+*                             3330 MODEL-2                     @ZA46311 11788000
                                   1051+*                             3333 MODEL-1                     @ZA46311 11801800
                            0002A  1052+DCBDV340 EQU   X'2A' -        3340/3344 DISK STORAGE FACILITY  @ZA46311 11815600
                            0002B  1053+DCBDV350 EQU   X'2B' -        3350 DISK STORAGE FACILITY       @ZA46311 11829400
                                   1054+*                             MODELS A2, B2, AND C2            @ZA46311 11843200
                            0002C  1055+DCBDV375 EQU   X'2C' -        3375 DISK STORAGE FACILITY          @F01A 11850100
                            0002D  1056+DCBDV331 EQU   X'2D' -        3330 MODEL-11 OR 3333 MODEL-11   @ZA46311 11857000
                                   1057+*                             DISK STORAGE FACILITY            @ZA46311 11870800
                            0002E  1058+DCBDV380 EQU   X'2E' -        3380 DISK STORAGE FACILITY          @F01A 11877700

000012                             1060+DCBTRBAL DS    H -            TRACK BALANCE.  NUMBER OF BYTES REMAINING 11900000
                                   1061+*                             ON CURRENT TRACK AFTER A WRITE OPERATION  11950000
                                   1062+*                             (THIS QUANTITY MAY BE NEGATIVE IF THERE   12000000
                                   1063+*                             ARE NO BYTES REMAINING ON TRACK).         12050000

                                   1065+*********************************************************************** 12151000
                                   1066+*                       MAGNETIC TAPE                                   12200000
                                   1067+*********************************************************************** 12201000

000014                      00000  1069+         ORG   IHADCB                                                   12300000
000000                             1070+         DS    CL12 -         RESERVED FOR I/O SUPERVISOR               12350000
00000C                             1071+DCBBLKCT DS    F -            BLOCK COUNT FOR EACH VOLUME               12400000
000010                             1072+DCBTRTCH DS    C -            TAPE RECORDING TECHNIQUE FOR 7-TRACK TAPE 12450000
                            00023  1073+DCBMTE   EQU   X'23' -        E  - EVEN PARITY                          12500000
                            0003B  1074+DCBMTT   EQU   X'3B' -        T  - BCD/EBCDIC TRANSLATION               12550000
                            00013  1075+DCBMTC   EQU   X'13' -        C  - DATA CONVERSION                      12600000
                            0002B  1076+DCBMTET  EQU   X'2B' -        ET - EVEN PARITY AND TRANSLATION          12650000
000011                             1077+         DS    C -            DCBDEVT - DEVICE TYPE                     12700000
                            00081  1078+DCBDVMT  EQU   X'81' -        2400 SERIES MAGNETIC TAPE UNIT (7-TRACK   12750000
                                   1079+*                             OR 9-TRACK)                               12800000
                            00083  1080+DCBDVMT3 EQU   X'83' -        3400 SERIES MAGNETIC TAPE UNIT            12850000
000012                             1081+DCBDEN   DS    C -            TAPE DENSITY - 2400 SERIES MAGNETIC TAPE  12900000
                                   1082+*                             UNITS                                     12950000
                                   1083+*                             CODE    7-TRACK     9-TRACK               13000000
                            00003  1084+DCBMTDN0 EQU   X'03' -         0       200 BPI       -                  13050000
                            00043  1085+DCBMTDN1 EQU   X'43' -         1       556 BPI       -                  13100000
                            00083  1086+DCBMTDN2 EQU   X'83' -         2       800 BPI     800 BPI              13150000
                            000C3  1087+DCBMTDN3 EQU   X'C3' -         3         -        1600 BPI              13200000
                            000D3  1088+DCBMTDN4 EQU   X'D3' -         4         -        6250 BPI              13210000
000013                             1089+         DS    X -            RESERVED                                  13250000

                                   1091+*********************************************************************** 13351000
                                   1092+*                       PAPER TAPE                                      13400000
                                   1093+*********************************************************************** 13401000

000014                      00008  1095+         ORG   IHADCB+8                                                 13500000
000008                             1096+DCBLCTBL DS    A -            ADDRESS OF TRANSLATE TABLE                13550000
00000C                             1097+         DS    XL4 -          RESERVED                                  13600000
000010                             1098+DCBCODE  DS    C -            PAPER TAPE CODE BEING USED.  THE          13650000
                                   1099+*                             APPROPRIATE TRANSLATE TABLE IS MADE       13700000
                                   1100+*                             AVAILABLE                                 13750000
                            00080  1101+DCBPTCDN EQU   X'80' -        N - NO CONVERSION                         13800000
                            00040  1102+DCBPTCDI EQU   X'40' -        I - IBM BCD                               13850000
                            00020  1103+DCBPTCDF EQU   X'20' -        F - FRIDEN                                13900000
                            00010  1104+DCBPTCDB EQU   X'10' -        B - BURROUGHS                             13950000
         FILEDUMP V1.0.0 - PRINT FILE DUMPS ****                                                               PAGE   20


  LOC  OBJECT CODE    ADDR1 ADDR2  STMT   SOURCE STATEMENT                                       ASM 0201 21.51 03/12/22

                            00008  1105+DCBPTCDC EQU   X'08' -        C - NATIONAL CASH REGISTER                14000000
                            00004  1106+DCBPTCDA EQU   X'04' -        A - ASCII (8-TRACK)                       14050000
                            00002  1107+DCBPTCDT EQU   X'02' -        T - TELETYPE                              14100000
000011                             1108+         DS    C -            DCBDEVT - DEVICE TYPE                     14150000
                            00050  1109+DCBDVPTP EQU   X'50' -        2671 PAPER TAPE READER                    14200000
000012                             1110+         DS    X -            RESERVED                                  14250000
000013                             1111+DCBPTFLG DS    BL1 -          PAPER TAPE FLAGS                          14300000
                            00010  1112+DCBPTIC  EQU   DCBBIT3 -      INVALID CHARACTER IN LAST RECORD READ     14350000
                            00008  1113+DCBPTECT EQU   DCBBIT4 -      END OF RECORD CHARACTER REACHED IN        14400000
                                   1114+*                             TRANSLATION                               14450000
                            00004  1115+DCBPTECR EQU   DCBBIT5 -      END OF RECORD CHARACTER DETECTED DURING   14500000
                                   1116+*                             READ                                      14550000
                            00002  1117+DCBPTUCT EQU   DCBBIT6 -      IF ONE, UPPER CASE TRANSLATE.             14600000
                                   1118+*                             IF ZERO, LOWER CASE TRANSLATE             14650000
                            00001  1119+DCBPTERR EQU   DCBBIT7 -      ERROR DETECTED ON READ                    14700000

                                   1121+*********************************************************************** 14801000
                                   1122+*                       PRINTER                                         14850000
                                   1123+*********************************************************************** 14851000

000014                      00010  1125+         ORG   IHADCB+16                                                14950000
000010                             1126+DCBPRTSP DS    C -            NUMBER INDICATING NORMAL PRINTER SPACING  15000000
                            00001  1127+DCBPRSP0 EQU   X'01' -        0 - NO SPACING                            15050000
                            00009  1128+DCBPRSP1 EQU   X'09' -        1 - SPACE ONE LINE                        15100000
                            00011  1129+DCBPRSP2 EQU   X'11' -        2 - SPACE TWO LINES                       15150000
                            00019  1130+DCBPRSP3 EQU   X'19' -        3 - SPACE THREE LINES                     15200000
000011                             1131+         DS    C -            DCBDEVT - DEVICE TYPE                     15250000
                            00048  1132+DCBDVPR1 EQU   X'48' -        1403 PRINTER AND 1404 PRINTER (CONTINUOUS 15300000
                                   1133+*                             FORM SUPPORT ONLY)                        15350000
                            0004A  1134+DCBDVPR2 EQU   X'4A' -        1443 PRINTER                              15400000
                            00049  1135+DCBDVPR3 EQU   X'49' -        3211 PRINTER                              15450000
                            0004B  1136+DCBDVPR4 EQU   X'4B' -        3203-4 PRINTER                   @32034AP 15455000
                            0004E  1137+DCBDVPR5 EQU   X'4E'          3800 PRINTER                     @Z40MSRZ 15460000
000012                             1138+DCBPRTOV DS    C -            TEST-FOR-PRINTER-OVERFLOW MASK            15500000
                                   1139+*                             (PRTOV MASK)                              15550000
                            00020  1140+DCBPRC9  EQU   X'20' -        9  - TEST FOR CHANNEL 9 OVERFLOW          15600000
                            00010  1141+DCBPRC12 EQU   X'10' -        12 - TEST FOR CHANNEL 12 OVERFLOW         15650000
                                   1142+*                                                                       15660000
000013                             1143+DCBPRBYT DS    C             PRINTER BYTE                      @Z40MSRZ 15670000
                            00003  1144+DCBTRCID EQU   DCBBIT6+DCBBIT7   2-BIT ID OF 3800 TRANSLATE    @Z40MSRZ 15680000
                                   1145+*                                TABLE ACTIVE/LAST SELECTED    @Z40MSRZ 15690000
000014                             1146+         DS    X -            RESERVED                                  15700000

                                   1148+*********************************************************************** 15801000
                                   1149+*                       CARD READER, CARD PUNCH                         15850000
                                   1150+*********************************************************************** 15851000

000015                      00010  1152+         ORG   IHADCB+16                                                15950000
000010                             1153+DCBMODE  DS    0B -           MODE OF OPERATION FOR 1442 CARD READ      16000000
                                   1154+*                             PUNCH (BITS 0-3)                          16050000
000010                             1155+DCBSTACK DS    B -            STACKER SELECTION (BITS 4-7)              16100000
                            00080  1156+DCBMODEC EQU   DCBBIT0 -      COLUMN BINARY MODE                        16150000
                            00040  1157+DCBMODEE EQU   DCBBIT1 -      EBCDIC MODE                               16200000
                            00020  1158+DCBMODEO EQU   DCBBIT2 -      OPTICAL MARK READ MODE                    16250000
                            00010  1159+DCBMODER EQU   DCBBIT3 -      READ COLUMN ELIMINATE MODE                16300000
         FILEDUMP V1.0.0 - PRINT FILE DUMPS ****                                                               PAGE   21


  LOC  OBJECT CODE    ADDR1 ADDR2  STMT   SOURCE STATEMENT                                       ASM 0201 21.51 03/12/22

                            00002  1160+DCBSTCK2 EQU   DCBBIT6 -      STACKER 2                                 16350000
                            00001  1161+DCBSTCK1 EQU   DCBBIT7 -      STACKER 1                                 16400000
000011                             1162+         DS    C -            DCBDEVT - DEVICE TYPE                     16450000
                            00041  1163+DCBDVCR0 EQU   X'41' -        2540 CARD READER                          16500000
                            00042  1164+DCBDVCP0 EQU   X'42' -        2540 CARD PUNCH                           16550000
                            00043  1165+DCBDVCRP EQU   X'43' -        1442 CARD READ PUNCH                      16600000
                            00044  1166+DCBDVCR1 EQU   X'44' -        2501 CARD READER                          16650000
                            00045  1167+DCBDVCPR EQU   X'45' -        2520 CARD READ PUNCH                      16700000
                            00046  1168+DCBDVCR2 EQU   X'46' -        3505 CARD READER                          16710000
                            0004C  1169+DCBDVCP1 EQU   X'4C' -        3525 CARD PUNCH                           16720000
000012                             1170+         DS    X -            RESERVED                                  16750000
000013                             1171+DCBFUNC  DS    B -            FUNCTION INDICATOR FOR THE 3525           16800000
                            00080  1172+DCBFNCBI EQU   DCBBIT0 -      INTERPRET (PUNCH AND PRINT TWO LINES)     16850000
                            00040  1173+DCBFNCBR EQU   DCBBIT1 -      READ                                      16900000
                            00020  1174+DCBFNCBP EQU   DCBBIT2 -      PUNCH                                     16950000
                            00010  1175+DCBFNCBW EQU   DCBBIT3 -      PRINT                                     17000000
                            00008  1176+DCBFNCBD EQU   DCBBIT4 -      DATA PROTECTION                           17050000
                            00004  1177+DCBFNCBX EQU   DCBBIT5 -      THIS DATA SET IS TO BE PRINTED            17100000
                            00002  1178+DCBFNCBT EQU   DCBBIT6 -      TWO-LINE PRINT SUPPORT REQUEST            17150000

                                   1180+*********************************************************************** 18051000
                                   1181+*                       OPTICAL READER AND MAGNETIC CHAR READER         18100000
                                   1182+*********************************************************************** 18101000

000014                      00000  1184+         ORG   IHADCB                                                   18200000
000000                             1185+DCBWTOID DS    0A -           SAME AS DCBWTOIA BELOW                    18250000
000000                             1186+         DS    X -            RESERVED                                  18300000
000001                             1187+DCBWTOIA DS    AL3 -          A BINARY IDENTIFICATION NUMBER ASSIGNED   18350000
                                   1188+*                             BY COMMUNICATIONS TASK TO MESSAGE ISSUED  18400000
                                   1189+*                             BY WTO MACRO.  THIS NUMBER IS USED BY THE 18450000
                                   1190+*                             DOM MACRO WHEN MESSAGE IS NO LONGER       18500000
                                   1191+*                             REQUIRED (MCS SUPPORT).  ---              18550000
                                   1192+*                             FOR MAGNETIC CHAR READER - AFTER FIRST    18600000
                                   1193+*                             READ HAS BEEN ISSUED, CONTAINS ADDRESS OF 18650000
                                   1194+*                             MAGNETIC INTERRUPT CONTROL BLOCK (MICB)   18700000
                                   1195+*                             BEING USED BY THE APPENDAGES.             18750000

                                   1197+*********************************************************************** 18851000
                                   1198+*                       OPTICAL READER DEVICES                          18900000
                                   1199+*                       1285, 1287, 1288, 3886                          18950000
                                   1200+*********************************************************************** 18951000

000004                      00004  1202+         ORG   DCBWTOID+4                                               19050000
000004                             1203+DCBERRCN DS    0A -           SAME AS DCBERRCA BELOW                    19100000
000004                             1204+         DS    X -            RESERVED                                  19150000
000005                             1205+DCBERRCA DS    AL3 -          ADDRESS OF 32 BYTES OF DECLARED STORAGE   19200000
                                   1206+*                             SPECIFIED BY THE USER IN HIS PROGRAM.     19250000
                                   1207+*                             THIS STORAGE WILL BE USED BY THE          19300000
                                   1208+*                             PROGRAMMING SUPPORT AS EIGHT 4-BYTE       19350000
                                   1209+*                             COUNTERS IN WHICH TOTALS OF CERTAIN 1285, 19400000
                                   1210+*                             1287 AND 1288 ERROR CONDITIONS ARE        19450000
                                   1211+*                             ACCUMULATED.                              19500000
000008                      00004  1212+         ORG   DCBWTOID+4                                               19501000
000004                             1213+DCBLNNUM DS    X -            3886  DOCUMENT LINE NUMBER                19502000
000005                             1214+DCBLFMAT DS    X -            3886  LINE FORMAT NUMBER                  19503000
         FILEDUMP V1.0.0 - PRINT FILE DUMPS ****                                                               PAGE   22


  LOC  OBJECT CODE    ADDR1 ADDR2  STMT   SOURCE STATEMENT                                       ASM 0201 21.51 03/12/22

000006                             1215+DCBORFLG DS    X -            3886  FLAGS                               19504000
                            00080  1216+DCBEOPFG EQU   DCBBIT0 -      END OF PAGE                               19505000
000007                             1217+         DS    X -            RESERVED                                  19506000
000008                             1218+DCBDSPLY DS    0A -           SAME AS DCBDSPLA BELOW                    19550000
000008                             1219+DCBFRID  DS    0CL4 -         3886  FORMAT RECORD ID                    19551000
000008                             1220+         DS    X -            RESERVED                                  19600000
000009                             1221+DCBDSPLA DS    AL3 -          ADDRESS OF DSPLY (BSAM) ROUTINE USED FOR  19650000
                                   1222+*                             KEYBOARD ENTRY OF A COMPLETE FIELD        19700000
00000C                             1223+DCBRESCN DS    0A -           SAME AS DCBRESCA BELOW                    19750000
00000C                             1224+DCBRDLNE DS    0A -           SAME AS DCBRDLNA BELOW                    19800000
00000C                             1225+DCBFRTBA DS    0A -           3886  FORMAT RECORD TABLE                 19801000
00000C                             1226+         DS    X -            RESERVED                                  19850000
00000D                             1227+DCBRESCA DS    0AL3 -         ADDRESS OF RESCN (BSAM) ROUTINE USED TO   19900000
                                   1228+*                             FORCE ON-LINE CORRECTION OF UNREADABLE    19950000
                                   1229+*                             CHARACTERS                                20000000
00000D                             1230+DCBRDLNA DS    AL3 -          ADDRESS OF RDLNE (QSAM) ROUTINE USED TO   20050000
                                   1231+*                             FORCE ON-LINE CORRECTION OF UNREADABLE    20100000
                                   1232+*                             CHARACTERS                                20150000
000010                             1233+DCBORBYT DS    BL1 -          OPTICAL READER BYTE USED BY BSAM/QSAM     20200000
                            00080  1234+DCBORSYN EQU   DCBBIT0 -      SYNAD IN CONTROL                          20250000
                            00040  1235+DCBOREOF EQU   DCBBIT1 -      END OF FILE (EOF)                         20300000
                            00020  1236+DCBORBFP EQU   DCBBIT2 -      BUFFERS PRIMED (QSAM)                     20350000
000011                             1237+         DS    C -            DCBDEVT - DEVICE TYPE                     20400000
                            0005A  1238+DCBDVOR5 EQU   X'5A' -        1285 OPTICAL READER                       20450000
                            0005B  1239+DCBDVOR7 EQU   X'5B' -        1287 OPTICAL READER                       20500000
                            0005C  1240+DCBDVOR8 EQU   X'5C' -        1288 OPTICAL READER                       20550000
                            00057  1241+DCBDVOR9 EQU   X'57' -        3886 OPTICAL READER                       20551000
000012                             1242+DCBEIB   DS    BL1 -          ERROR INDICATOR BYTE                      20600000
                            00040  1243+DCBORNRM EQU   DCBBIT1 -      THE 1287 OR 1288 SCANNER WAS UNABLE TO    20650000
                                   1244+*                             LOCATE THE REFERENCE MARK                 20700000
                            00020  1245+DCBORREJ EQU   DCBBIT2 -      FOR 1287, A STACKER SELECT COMMAND WAS    20750000
                                   1246+*                             GIVEN AFTER ALLOTTED TIME HAD ELAPSED AND 20800000
                                   1247+*                             THE DOCUMENT HAS BEEN PUT IN REJECT       20850000
                                   1248+*                             POCKET.  FOR 1288 UNFORMATTED ONLY,       20900000
                                   1249+*                             END-OF-PAGE HAS OCCURRED.                 20950000
                            00010  1250+DCBORERR EQU   DCBBIT3 -      A NONRECOVERABLE ERROR HAS OCCURRED.      21000000
                            00008  1251+DCBORECK EQU   DCBBIT4 -      AN EQUIPMENT CHECK RESULTED IN AN         21050000
                                   1252+*                             INCOMPLETE READ                           21100000
                            00004  1253+DCBORWLR EQU   DCBBIT5 -      A WRONG-LENGTH RECORD CONDITION HAS       21150000
                                   1254+*                             OCCURRED                                  21200000
                            00002  1255+DCBORHPR EQU   DCBBIT6 -      FOR QSAM - OPERATOR ENTERED ONE OR MORE   21250000
                                   1256+*                             CHARACTERS FROM THE KEYBOARD.             21300000
                                   1257+*                             FOR BSAM - A HOPPER EMPTY CONDITION HAS   21350000
                                   1258+*                             OCCURRED                                  21400000
                            00001  1259+DCBORDCK EQU   DCBBIT7 -      A DATA CHECK HAS OCCURRED                 21450000
000013                             1260+         DS    X -            RESERVED                                  21500000

                                   1262+*********************************************************************** 21601000
                                   1263+*                       MAGNETIC CHARACTER READER DEVICES               21650000
                                   1264+*                       1419 MAGNETIC CHARACTER READER                  21700000
                                   1265+*                       1275 OPTICAL READER SORTER                      21750000
                                   1266+*                       3890 MAGNETIC CHARACTER READER                  21751000
                                   1267+*                       3895 DOCUMENT READER/INSCRIBER                  21751500
                                   1268+*********************************************************************** 21752000
         FILEDUMP V1.0.0 - PRINT FILE DUMPS ****                                                               PAGE   23


  LOC  OBJECT CODE    ADDR1 ADDR2  STMT   SOURCE STATEMENT                                       ASM 0201 21.51 03/12/22

000014                      00000  1270+         ORG   IHADCB                                                   21850000
000000                             1271+DCBSSID  DS    CL8 -          BEFORE DCB IS OPENED - NAME OF USER'S     21900000
                                   1272+*                             STACKER SELECT ROUTINE.                   21950000

000008                      00000  1274+         ORG   DCBSSID                                                  22050000
000000                             1275+         DS    0A -           AFTER DCB IS OPENED - DCBWTOID            22100000
000000                             1276+DCBQSMEX DS    A -            ADDRESS OF QSAM EXIT ROUTINE              22110000
000004                             1277+DCBSSAD  DS    0A -           ADDRESS OF USER'S STACKER SELECT ROUTINE  22150000
000004                             1278+DCBIMG   DS    0A -           3890  ADDR OF USER'S IMAGE PROC RTN       22151000
000004                             1279+         DS    X -            RESERVED                                  22200000
000005                             1280+DCBSSADA DS    AL3 -          ADDRESS OF USER'S STACKER SELECT ROUTINE  22250000
000008                             1281+DCBIMAGE DS    0A -           SAME AS DCBIMAGA BELOW                    22300000
000008                             1282+DCBMRFG  DS    BL1 -          BUFFER INDICATOR                          22350000
                            000C0  1283+DCBMRBCT EQU   DCBBIT0+DCBBIT1 - TWO-BIT BINARY COUNTER WHICH INDICATES 22400000
                                   1284+*                             INTO WHICH BUFFER STATUS INFORMATION IS   22450000
                                   1285+*                             TO BE POSTED                              22500000
000009                             1286+DCBIMAGA DS    AL3 -          ADDRESS OF PARAMETER LIST USED TO         22550000
                                   1287+*                             COMMUNICATE BETWEEN USER'S PROCESSING     22600000
                                   1288+*                             ROUTINES AND HIS STACKER SELECT ROUTINES  22650000
00000C                             1289+DCBECBLT DS    0A -           SAME AS DCBECBLA BELOW                    22700000
00000C                             1290+DCBHDR   DS    0A -           3890  ADDR OF USER'S HEADER DATA AREA     22701000
00000C                             1291+DCBMRIND DS    BL1 -          INDICATOR AND COUNTER BYTE                22750000
                            000E0  1292+DCBMRDCT EQU   DCBBIT0+DCBBIT1+DCBBIT2 THREE-BIT BINARY COUNTER OF      22800000
                                   1293+*                             NUMBER OF DOCUMENTS READ AFTER DISENGAGE  22850000
                            00010  1294+DCBMRSCU EQU   DCBBIT3 -      DCB WAS ALTERED WHEN SYNAD ROUTINE WAS    22900000
                                   1295+*                             ENTERED DUE TO SECONDARY CONTROL UNIT     22950000
                                   1296+*                             (SCU) ERROR                               23000000
                            00008  1297+DCBMRPLO EQU   DCBBIT4 -      POCKET LIGHT HAS BEEN TURNED ON           23050000
                            00004  1298+DCBMRPLS EQU   DCBBIT5 -      POCKET LIGHT 0-6 IS BEING SET ON          23100000
                            00002  1299+DCBMRERP EQU   DCBBIT6 -      ERROR RECOVERY PROCEDURE IS EXECUTING FOR 23150000
                                   1300+*                             PRIMARY CONTROL UNIT (PCU)                23200000
                            00001  1301+DCBMRERS EQU   DCBBIT7 -      ERROR RECOVERY PROCEDURE IS EXECUTING FOR 23250000
                                   1302+*                             SECONDARY CONTROL UNIT (SCU)              23300000
00000D                             1303+DCBECBLA DS    AL3 -          ADDRESS OF ECB LIST PASSED TO WAIT MACRO  23350000
                                   1304+*                             BY CHECK MACRO WHEN NO 1419/1275 IS       23400000
                                   1305+*                             AVAILABLE FOR PROCESSING                  23450000
000010                             1306+DCBMRFLG DS    BL1 -          FLAG BYTE                                 23500000
                            00080  1307+DCBMRSCC EQU   DCBBIT0 -      FIRST OR SECOND SECONDARY CONTROL UNIT    23550000
                                   1308+*                             COMMAND CHAIN IS BEING USED               23600000
                            00040  1309+DCBMRDBG EQU   DCBBIT1 -      DEBUGGING MODE IN USE                     23650000
                            00020  1310+DCBMRDRU EQU   DCBBIT2 -      DISENGAGE REQUESTED BY USER               23700000
                            00010  1311+DCBMRDR  EQU   DCBBIT3 -      DISENGAGE REQUESTED                       23750000
                            0000C  1312+DCBMRPCC EQU   DCBBIT4+DCBBIT5 - TWO-BIT BINARY COUNTER INDICATING      23800000
                                   1313+*                             FIRST, SECOND, OR THIRD PRIMARY CONTROL   23850000
                                   1314+*                             UNIT COMMAND CHAIN IS BEING USED          23900000
                            00002  1315+DCBMRDWT EQU   DCBBIT6 -      WTO MESSAGE MUST BE DELETED               23950000
                            00001  1316+DCBMRUE  EQU   DCBBIT7 -      UNIT EXCEPTION                            24000000
000011                             1317+         DS    C -            DCBDEVT - DEVICE TYPE                     24050000
                            0005D  1318+DCBDVMR  EQU   X'5D' -        1419 MAGNETIC CHARACTER READER            24100000
                            0005F  1319+DCBDVORS EQU   X'5F' -        1275 OPTICAL READER SORTER                24150000
                            00056  1320+DCBDVMRS EQU   X'56' -        3890 MAGNETIC CHARACTER READER SORTER     24151000
                            00059  1321+DCBDVDRI EQU   X'59' -        3895 DOCUMENT READER/INSCRIBER   @G30HSJK 24171000
000012                             1322+DCBAPPIN DS    C -            AN INDICATOR USED BY THE APPENDAGES TO    24200000
                                   1323+*                             PASS INFORMATION ABOUT ONE CHANNEL CHAIN  24250000
                                   1324+*                             TO AN APPENDAGE ASSOCIATED WITH ANOTHER   24300000
         FILEDUMP V1.0.0 - PRINT FILE DUMPS ****                                                               PAGE   24


  LOC  OBJECT CODE    ADDR1 ADDR2  STMT   SOURCE STATEMENT                                       ASM 0201 21.51 03/12/22

                                   1325+*                             CHANNEL CHAIN                             24350000
000013                             1326+         DS    X -            RESERVED                                  24400000

                                   1328+*********************************************************************** 24551000
                                   1329+*                       ACCESS METHOD COMMON INTERFACE                  24600000
                                   1330+*********************************************************************** 24601000

000014                      00010  1332+         ORG   IHADCB+16                                                24700000
000010                             1333+DCBRELB  DS    0F -           SAME AS DCBREL BELOW                      24750000
000010                             1334+DCBKEYLE DS    FL1 -          KEY LENGTH OF DATA SET                    24800000
000011                             1335+DCBDEVT  DS    0C -           DEVICE TYPE                               24850000
                            0004F  1336+DCBDVTRM EQU   X'4F' -        TERMINAL.  (DD CONTAINS TERM=TS)          24900000
000011                             1337+DCBREL   DS    FL3 -          NUMBER OF RELATIVE TRACKS OR BLOCKS IN    24950000
                                   1338+*                             THIS DATA SET (BDAM)                      25000000
000014                             1339+DCBBUFCB DS    0A -           ADDRESS OF BUFFER POOL CONTROL BLOCK      25050000
000014                             1340+DCBBUFNO DS    FL1 -          NUMBER OF BUFFERS REQUIRED FOR THIS DATA  25100000
                                   1341+*                             SET.  MAY RANGE FROM 0 TO 255.  IF        25150000
                                   1342+*                             UNBLOCKED SPANNED RECORDS ARE USED,       25200000
                                   1343+*                             NUMBER OF SEGMENT WORK AREAS REQUIRED     25250000
                                   1344+*                             FOR THIS DATA SET.                        25300000
000015                             1345+DCBBUFCA DS    AL3 -          ADDRESS OF BUFFER POOL CONTROL BLOCK      25350000
000018                             1346+DCBBUFL  DS    H -            LENGTH OF BUFFER.  MAY RANGE FROM 0 TO    25400000
                                   1347+*                             32,767.                                   25450000
00001A                             1348+DCBDSORG DS    0BL2 -         DATA SET ORGANIZATION BEING USED          25500000
00001A                             1349+DCBDSRG1 DS    BL1 -          FIRST BYTE OF DCBDSORG                    25550000
                            00080  1350+DCBDSGIS EQU   DCBBIT0 -      IS - INDEXED SEQUENTIAL ORGANIZATION      25600000
                            00040  1351+DCBDSGPS EQU   DCBBIT1 -      PS - PHYSICAL SEQUENTIAL ORGANIZATION     25650000
                            00020  1352+DCBDSGDA EQU   DCBBIT2 -      DA - DIRECT ORGANIZATION                  25700000
                            00010  1353+DCBDSGCX EQU   DCBBIT3 -      CX - BTAM OR QTAM LINE GROUP              25750000
                            00002  1354+DCBDSGPO EQU   DCBBIT6 -      PO - PARTITIONED ORGANIZATION             25900000
                            00001  1355+DCBDSGU  EQU   DCBBIT7 -      U  - UNMOVABLE, THE DATA CONTAINS         25950000
                                   1356+*                                  LOCATION DEPENDENT INFORMATION       26000000
00001B                             1357+DCBDSRG2 DS    BL1 -          SECOND BYTE OF DCBDSORG                   26050000
                            00080  1358+DCBDSGGS EQU   DCBBIT0 -      GS - GRAPHICS ORGANIZATION                26100000
                            00040  1359+DCBDSGTX EQU   DCBBIT1 -      TX - TCAM LINE GROUP                      26150000
                            00020  1360+DCBDSGTQ EQU   DCBBIT2 -      TQ - TCAM MESSAGE QUEUE                   26200000
                            00008  1361+DCBACBM  EQU   DCBBIT4 -      ACCESS METHOD CONTROL BLOCK               26250000
                            00004  1362+DCBDSGTR EQU   DCBBIT5 -      TR - TCAM 3705                            26260000
00001C                             1363+DCBIOBAD DS    0A -           ADDRESS OF IOB WHEN CHAINED SCHEDULING IS 26300000
                                   1364+*                             USED OR FOR 1419/1275                     26350000
00001C                             1365+DCBODEB  DS    0A -           ADDRESS OF OLD DEB                        26400000
00001C                             1366+DCBLNP   DS    0FL1 -         3525 PRINTER LINE POSITION COUNTER        26450000
00001C                             1367+DCBQSLM  DS    BL1 -          QSAM LOCATE MODE LOGICAL RECORD INTERFACE 26500000
                                   1368+*                             INDICATOR BYTE FOR UPDAT PROCESSING OF    26550000
                                   1369+*                             SPANNED RECORDS                           26600000
                            00080  1370+DCB1DVDS EQU   DCBBIT0 -      ONLY ONE DEVICE IS ALLOCATED TO THIS      26650000
                                   1371+*                             DATA SET                                  26700000
                            00040  1372+DCBUPDCM EQU   DCBBIT1 -      UPDATE COMPLETE, FREE OLD DEB             26750000
                            00030  1373+DCBUPDBT EQU   DCBBIT2+DCBBIT3 - UPDATE BITS                            26800000
                            00020  1374+DCBUPDT  EQU   DCBBIT2 -      UPDATE TO TAKE PLACE                      26850000
                            00030  1375+DCBNUPD  EQU   DCBBIT2+DCBBIT3 - NO UPDATE TO TAKE PLACE                26900000
                            00010  1376+DCBSVDEB EQU   DCBBIT3 -      OLD DEB ADDRESS MUST BE SAVED             26950000
00001D                             1377+DCBIOBAA DS    0AL3 -         SAME AS DCBIOBAD ABOVE                    27000000
00001D                             1378+DCBODEBA DS    AL3 -          ADDRESS OF OLD DEB                        27050000
000020                      0001C  1379+         ORG   IHADCB+28                                                27100000
         FILEDUMP V1.0.0 - PRINT FILE DUMPS ****                                                               PAGE   25


  LOC  OBJECT CODE    ADDR1 ADDR2  STMT   SOURCE STATEMENT                                       ASM 0201 21.51 03/12/22

00001C                             1380+DCBSVCXL DS    0A -           SAME AS DCBSVCXA BELOW                    27150000
00001C                             1381+         DS    X -            RESERVED                                  27200000
00001D                             1382+DCBSVCXA DS    AL3 -          POINTER TO EXIT LIST OF JES               27250000
                                   1383+*                             C.I. INTERFACE CONTROL SVC                27300000

                                   1385+*********************************************************************** 27351000
                                   1386+*                       FOUNDATION EXTENSION                            27400000
                                   1387+*********************************************************************** 27401000

000020                             1389+DCBEODAD DS    0A -           SAME AS DCBEODA BELOW                     27500000
000020                             1390+DCBHIARC DS    0BL1 -         HIERARCHY BITS                            27550000
000020                             1391+DCBBFTEK DS    0BL1 -         BUFFERING TECHNIQUE BITS                  27600000
000020                             1392+DCBBFALN DS    BL1 -          BUFFER ALIGNMENT BITS                     27650000
                            00080  1393+DCBH1    EQU   DCBBIT0 -      HIERARCHY 1 MAIN STORAGE - BIT 5 IS ZERO  27700000
                            00070  1394+DCBBFT   EQU   DCBBIT1+DCBBIT2+DCBBIT3 BUFFERING TECHNIQUE              27750000
                            00060  1395+DCBBFTA  EQU   DCBBIT1+DCBBIT2 - QSAM LOCATE MODE PROCESSING OF SPANNED 27800000
                                   1396+*                             RECORDS - OPEN IS TO CONSTRUCT A RECORD   27850000
                                   1397+*                             AREA IF IT AUTOMATICALLY CONSTRUCTS       27900000
                                   1398+*                             BUFFERS                                   27950000
                            00020  1399+DCBBFTR  EQU   DCBBIT2 -      FOR BSAM CREATE BDAM PROCESSING OF        28000000
                                   1400+*                             UNBLOCKED SPANNED RECORDS - SOFTWARE      28050000
                                   1401+*                             TRACK OVERFLOW.  FOR BSAM INPUT           28100000
                                   1402+*                             PROCESSING OF UNBLOCKED SPANNED RECORDS   28150000
                                   1403+*                             WITH KEYS - RECORD OFFSET PROCESSING.     28200000
                            00040  1404+DCBBFTS  EQU   DCBBIT1 -      SIMPLE BUFFERING - BIT 3 IS ZERO          28250000
                            00020  1405+DCBBFTKR EQU   DCBBIT2 -      UNBLOCKED SPANNED RECORDS - SOFTWARE      28300000
                                   1406+*                             TRACK OVERFLOW (BDAM)                     28350000
                            00010  1407+DCBBFTE  EQU   DCBBIT3 -      EXCHANGE BUFFERING - BIT 1 IS ZERO        28400000
                            00008  1408+DCBBFTKD EQU   DCBBIT4 -      DYNAMIC BUFFERING (BTAM)                  28450000
                            00004  1409+DCBH0    EQU   DCBBIT5 -      HIERARCHY 0 MAIN STORAGE - BIT 0 IS ZERO  28500000
                            00003  1410+DCBBFA   EQU   DCBBIT6+DCBBIT7 - BUFFER ALIGNMENT                       28550000
                            00002  1411+DCBBFAD  EQU   DCBBIT6 -      DOUBLEWORD BOUNDARY                       28600000
                            00001  1412+DCBBFAF1 EQU   DCBBIT7 -      FULLWORD NOT A DOUBLEWORD BOUNDARY,       28650000
                                   1413+*                             CODED IN DCB MACRO INSTRUCTION            28700000
                            00003  1414+DCBBFAF2 EQU   DCBBIT6+DCBBIT7 - FULLWORD NOT A DOUBLEWORD BOUNDARY,    28750000
                                   1415+*                             CODED IN DCB MACRO INSTRUCTION            28800000
000021                             1416+DCBEODA  DS    AL3 -          ADDRESS OF A USER-PROVIDED ROUTINE TO     28850000
                                   1417+*                             HANDLE END-OF-DATA CONDITIONS             28900000
000024                             1418+DCBEXLST DS    0A -           ADDRESS OF USER-PROVIDED LIST OF EXITS    28950000
000024                             1419+DCBRECFM DS    BL1 -          RECORD FORMAT                             29000000
                            000E0  1420+DCBRECLA EQU   DCBBIT0+DCBBIT1+DCBBIT2 RECORD LENGTH INDICATOR - ASCII  29050000
                            00020  1421+DCBRECD  EQU   DCBBIT2 -      ASCII VARIABLE RECORD LENGTH              29100000
                            000C0  1422+DCBRECL  EQU   DCBBIT0+DCBBIT1 - RECORD LENGTH INDICATOR                29150000
                            00080  1423+DCBRECF  EQU   DCBBIT0 -      FIXED RECORD LENGTH                       29200000
                            00040  1424+DCBRECV  EQU   DCBBIT1 -      VARIABLE RECORD LENGTH                    29250000
                            000C0  1425+DCBRECU  EQU   DCBBIT0+DCBBIT1 - UNDEFINED RECORD LENGTH                29300000
                            00020  1426+DCBRECTO EQU   DCBBIT2 -      TRACK OVERFLOW                            29350000
                            00010  1427+DCBRECBR EQU   DCBBIT3 -      BLOCKED RECORDS                           29400000
                            00008  1428+DCBRECSB EQU   DCBBIT4 -      FOR FIXED LENGTH RECORD FORMAT - STANDARD 29450000
                                   1429+*                             BLOCKS.  FOR VARIABLE LENGTH RECORD       29500000
                                   1430+*                             FORMAT - SPANNED RECORDS                  29550000
                            00006  1431+DCBRECCC EQU   DCBBIT5+DCBBIT6 - CONTROL CHARACTER INDICATOR            29600000
                            00004  1432+DCBRECCA EQU   DCBBIT5 -      ASA CONTROL CHARACTER                     29650000
                            00002  1433+DCBRECCM EQU   DCBBIT6 -      MACHINE CONTROL CHARACTER                 29700000
                            00000  1434+DCBRECC  EQU   X'00' -        NO CONTROL CHARACTER                      29750000
         FILEDUMP V1.0.0 - PRINT FILE DUMPS ****                                                               PAGE   26


  LOC  OBJECT CODE    ADDR1 ADDR2  STMT   SOURCE STATEMENT                                       ASM 0201 21.51 03/12/22

                            00001  1435+DCBRECKL EQU   DCBBIT7 -      KEY LENGTH (KEYLEN) WAS SPECIFIED IN DCB  29800000
                                   1436+*                             MACRO INSTRUCTION                         29850000
000025                             1437+DCBEXLSA DS    AL3 -          ADDRESS OF USER-PROVIDED LIST OF EXITS    29900000


                                   1440+*********************************************************************** 47139200
                                   1441+*                       FOUNDATION BEFORE OPEN                          47150000
                                   1442+*********************************************************************** 47151000

000028                      00028  1444+         ORG   IHADCB+40                                                47250000
000028                             1445+DCBDDNAM DS    CL8 -          NAME ON THE DD STATEMENT WHICH DEFINES    47300000
                                   1446+*                             THE DATA SET ASSOCIATED WITH THIS DCB     47350000
000030                             1447+DCBOFLGS DS    BL1 -          FLAGS USED BY OPEN ROUTINE                47400000
                            00080  1448+DCBOFLWR EQU   DCBBIT0 -      IF ZERO, LAST I/O OPERATION WAS READ OR   47450000
                                   1449+*                             POINT.  IF ONE, LAST I/O OPERATION WAS    47500000
                                   1450+*                             WRITE.                                    47550000
                            00080  1451+DCBOFIOD EQU   DCBBIT0 -      DATA SET IS BEING OPENED FOR INPUT OR     47600000
                                   1452+*                             OUTPUT (BDAM)                             47650000
                            00040  1453+DCBOFLRB EQU   DCBBIT1 -      LAST I/O OPERATION WAS IN READ BACKWARD   47700000
                                   1454+*                             MODE                                      47750000
                            00020  1455+DCBOFEOV EQU   DCBBIT2 -      SET TO 1 BY EOV WHEN IT CALLS CLOSE       47800000
                                   1456+*                             ROUTINE FOR CONCATENATION OF DATA SETS    47850000
                                   1457+*                             WITH UNLIKE ATTRIBUTES                    47900000
                            00010  1458+DCBOFOPN EQU   DCBBIT3 -      AN OPEN HAS BEEN SUCCESSFULLY COMPLETED   47950000
                            00008  1459+DCBOFPPC EQU   DCBBIT4 -      SET TO 1 BY PROBLEM PROGRAM TO INDICATE A 48000000
                                   1460+*                             CONCATENATION OF UNLIKE ATTRIBUTES        48050000
                            00004  1461+DCBOFTM  EQU   DCBBIT5 -      TAPE MARK HAS BEEN READ                   48100000
                            00002  1462+DCBOFUEX EQU   DCBBIT6 -      SET TO 0 BY AN I/O SUPPORT FUNCTION WHEN  48150000
                                   1463+*                             THAT FUNCTION TAKES A USER EXIT. SET TO 1 48200000
                                   1464+*                             ON RETURN FROM USER EXIT TO THE I/O       48250000
                                   1465+*                             SUPPORT FUNCTION WHICH TOOK THE EXIT.     48300000
                            00001  1466+DCBOFIOF EQU   DCBBIT7 -      SET TO 1 BY AN I/O SUPPORT FUNCTION IF    48350000
                                   1467+*                             DCB IS TO BE PROCESSED BY THAT FUNCTION   48400000
000031                             1468+DCBIFLG  DS    BL1 -          FLAGS USED BY IOS IN COMMUNICATING ERROR  48450000
                                   1469+*                             CONDITIONS AND IN DETERMINING CORRECTIVE  48500000
                                   1470+*                             PROCEDURES                                48550000
                            000C0  1471+DCBIBEC  EQU   DCBBIT0+DCBBIT1 - ERROR CORRECTION INDICATOR             48600000
                            00000  1472+DCBIFNEP EQU   X'00' -        NOT IN ERROR PROCEDURE                    48650000
                            00040  1473+DCBEX    EQU   DCBBIT1 -      ERROR CORRECTION OR IOS PAGE FIX IN       48700000
                                   1474+*                             PROCESS                                   48750000
                            000C0  1475+DCBIFPEC EQU   DCBBIT0+DCBBIT1 - PERMANENT ERROR CORRECTION             48800000
                            00030  1476+DCBIBPCT EQU   DCBBIT2+DCBBIT3 - PRINTER CARRIAGE TAPE PUNCH INDICATOR  48850000
                            00020  1477+DCBIFC9  EQU   DCBBIT2 -      CHANNEL 9 PRINTER CARRIAGE TAPE PUNCH     48900000
                                   1478+*                             SENSED                                    48950000
                            00010  1479+DCBIFC12 EQU   DCBBIT3 -      CHANNEL 12 PRINTER CARRIAGE TAPE PUNCH    49000000
                                   1480+*                             SENSED                                    49050000
                            0000C  1481+DCBIBIOE EQU   DCBBIT4+DCBBIT5 - IOS ERROR ROUTINE USE INDICATOR        49100000
                            00000  1482+DCBIFER  EQU   X'00' -        ALWAYS USE I/O SUPERVISOR ERROR ROUTINE   49150000
                            00004  1483+DCBIFNE1 EQU   DCBBIT5 -      NEVER USE I/O SUPERVISOR ERROR ROUTINE    49200000
                            00004  1484+DCBIFTIM EQU   DCBBIT5 -      TEST IOS MASK (IMSK) FOR ERROR PROCEDURE  49250000
                                   1485+*                             (BTAM)                                    49300000
                            00008  1486+DCBIFNE2 EQU   DCBBIT4 -      NEVER USE I/O SUPERVISOR ERROR ROUTINE    49350000
                            0000C  1487+DCBIFNE3 EQU   DCBBIT4+DCBBIT5 - NEVER USE I/O SUPERVISOR ERROR ROUTINE 49400000
000032                             1488+DCBMACR  DS    0BL2 -         MACRO INSTRUCTION REFERENCE               49450000
000032                             1489+DCBMACR1 DS    BL1 -          FIRST BYTE OF DCBMACR                     49500000
         FILEDUMP V1.0.0 - PRINT FILE DUMPS ****                                                               PAGE   27


  LOC  OBJECT CODE    ADDR1 ADDR2  STMT   SOURCE STATEMENT                                       ASM 0201 21.51 03/12/22

                            00080  1490+DCBMRECP EQU   DCBBIT0 -      EXECUTE CHANNEL PROGRAM (EXCP) ---        49550000
                                   1491+*                             ALWAYS ZERO (BSAM, QSAM, BPAM, BISAM,     49600000
                                   1492+*                             QISAM, BDAM) --- RESERVED (QTAM, BTAM)    49650000
                            00040  1493+DCBMRFE  EQU   DCBBIT1 -      FOUNDATION EXTENSION IS PRESENT (EXCP)    49700000
                            00040  1494+DCBMRGET EQU   DCBBIT1 -      GET (QSAM, QISAM, TCAM)                   49750000
                            00040  1495+DCBMRPTQ EQU   DCBBIT1 -      PUT FOR MESSAGE GROUP (QTAM) ---          49800000
                                   1496+*                             ALWAYS ZERO (BSAM, BPAM, BISAM, BDAM) --- 49850000
                                   1497+*                             RESERVED (BTAM)                           49900000
                            00020  1498+DCBMRAPG EQU   DCBBIT2 -      APPENDAGES ARE REQUIRED (EXCP)            49950000
                            00020  1499+DCBMRRD  EQU   DCBBIT2 -      READ (BSAM, BPAM, BISAM, BDAM, BTAM)      50000000
                            00020  1500+DCBMRWRQ EQU   DCBBIT2 -      WRITE FOR LINE GROUP (QTAM) ---           50050000
                                   1501+*                             ALWAYS ZERO (QSAM, QISAM)                 50100000
                            00010  1502+DCBMRCI  EQU   DCBBIT3 -      COMMON INTERFACE (EXCP)                   50150000
                            00010  1503+DCBMRMVG EQU   DCBBIT3 -      MOVE MODE OF GET (QSAM, QISAM)            50200000
                            00010  1504+DCBMRRDK EQU   DCBBIT3 -      KEY SEGMENT WITH READ (BDAM) ---          50250000
                                   1505+*                             ALWAYS ZERO (BISAM) ---                   50300000
                                   1506+*                             RESERVED (BSAM, BPAM, QTAM, BTAM)         50350000
                            00008  1507+DCBMRLCG EQU   DCBBIT4 -      LOCATE MODE OF GET (QSAM, QISAM)          50400000
                            00008  1508+DCBMRRDI EQU   DCBBIT4 -      ID ARGUMENT WITH READ (BDAM) ---          50450000
                                   1509+*                             ALWAYS ZERO (BISAM) ---                   50500000
                                   1510+*                             RESERVED (EXCP, BSAM, BPAM, QTAM, BTAM)   50550000
                            00004  1511+DCBMRABC EQU   DCBBIT5 -      USER'S PROGRAM MAINTAINS ACCURATE BLOCK   50600000
                                   1512+*                             COUNT (EXCP)                              50650000
                            00004  1513+DCBMRPT1 EQU   DCBBIT5 -      POINT (WHICH IMPLIES NOTE) (BSAM, BPAM)   50700000
                            00004  1514+DCBMRSBG EQU   DCBBIT5 -      SUBSTITUTE MODE OF GET (QSAM)             50750000
                            00004  1515+DCBMRDBF EQU   DCBBIT5 -      DYNAMIC BUFFERING (BISAM, BDAM) ---       50800000
                                   1516+*                             ALWAYS ZERO (QISAM) ---                   50850000
                                   1517+*                             RESERVED (QTAM, BTAM)                     50900000
                            00002  1518+DCBPGFXA EQU   DCBBIT6 -      PAGE FIX APPENDAGE IS SPECIFIED (EXCP)    50950000
                            00002  1519+DCBMRCRL EQU   DCBBIT6 -      CNTRL (BSAM, QSAM)                        51000000
                            00002  1520+DCBMRCHK EQU   DCBBIT6 -      CHECK (BISAM)                             51050000
                            00002  1521+DCBMRRDX EQU   DCBBIT6 -      READ EXCLUSIVE (BDAM) ---                 51100000
                                   1522+*                             RESERVED (BPAM, QISAM, QTAM, BTAM)        51150000
                            00001  1523+DCBMRDMG EQU   DCBBIT7 -      DATA MODE OF GET (QSAM)                   51200000
                            00001  1524+DCBMRCK  EQU   DCBBIT7 -      CHECK (BDAM) --- RESERVED (EXCP, BSAM,    51250000
                                   1525+*                             BPAM, BISAM, QISAM, QTAM, BTAM)           51300000
000033                             1526+DCBMACR2 DS    BL1 -          SECOND BYTE OF DCBMACR                    51350000
                            00080  1527+DCBMRSTL EQU   DCBBIT0 -      SETL (QISAM) --- ALWAYS ZERO (BSAM, QSAM, 51400000
                                   1528+*                             BPAM, BISAM, BDAM) ---                    51450000
                                   1529+*                             RESERVED (EXCP, QTAM, BTAM)               51500000
                            00040  1530+DCBMRPUT EQU   DCBBIT1 -      PUT (QSAM, TCAM) - PUT OR PUTX (QISAM)    51550000
                            00040  1531+DCBMRGTQ EQU   DCBBIT1 -      GET FOR MESSAGE GROUP (QTAM) ---          51600000
                                   1532+*                             ALWAYS ZERO (BSAM, BPAM, BISAM, BDAM) --- 51650000
                                   1533+*                             RESERVED (EXCP, BTAM)                     51700000
                            00020  1534+DCBMRWRT EQU   DCBBIT2 -      WRITE (BSAM, BPAM, BISAM, BDAM, BTAM)     51750000
                            00020  1535+DCBMRRDQ EQU   DCBBIT2 -      READ FOR LINE GROUP (QTAM) ---            51800000
                                   1536+*                             ALWAYS ZERO (QSAM, QISAM) ---             51850000
                                   1537+*                             RESERVED (EXCP)                           51900000
                            00010  1538+DCBMRMVP EQU   DCBBIT3 -      MOVE MODE OF PUT (QSAM, QISAM)            51950000
                            00010  1539+DCBMRWRK EQU   DCBBIT3 -      KEY SEGMENT WITH WRITE (BDAM) ---         52000000
                                   1540+*                             ALWAYS ZERO (BISAM) ---                   52050000
                                   1541+*                             RESERVED (EXCP, BSAM, BPAM, QTAM, BTAM)   52100000
                            00008  1542+DCBMR5WD EQU   DCBBIT4 -      FIVE-WORD DEVICE INTERFACE (EXCP)         52150000
                            00008  1543+DCBMRLDM EQU   DCBBIT4 -      LOAD MODE BSAM (CREATE BDAM DATA SET)     52200000
                                   1544+*                             (BSAM)                                    52250000
         FILEDUMP V1.0.0 - PRINT FILE DUMPS ****                                                               PAGE   28


  LOC  OBJECT CODE    ADDR1 ADDR2  STMT   SOURCE STATEMENT                                       ASM 0201 21.51 03/12/22

                            00008  1545+DCBMRLCP EQU   DCBBIT4 -      LOCATE MODE OF PUT (QSAM, QISAM)          52300000
                            00008  1546+DCBMRIDW EQU   DCBBIT4 -      ID ARGUMENT WITH WRITE (BDAM) ---         52350000
                                   1547+*                             ALWAYS ZERO (BISAM) ---                   52400000
                                   1548+*                             RESERVED (BPAM, QTAM, BTAM)               52450000
                            00004  1549+DCBMR4WD EQU   DCBBIT5 -      FOUR-WORD DEVICE INTERFACE (EXCP)         52500000
                            00004  1550+DCBMRPT2 EQU   DCBBIT5 -      POINT (WHICH IMPLIES NOTE) (BSAM, BPAM)   52550000
                            00004  1551+DCBMRTMD EQU   DCBBIT5 -      SUBSTITUTE MODE (QSAM)                    52600000
                            00004  1552+DCBMRUIP EQU   DCBBIT5 -      UPDATE IN PLACE (PUTX) (QISAM) ---        52650000
                                   1553+*                             ALWAYS ZERO (BISAM) ---                   52700000
                                   1554+*                             RESERVED (BDAM, QTAM, BTAM)               52750000
                            00002  1555+DCBMR3WD EQU   DCBBIT6 -      THREE-WORD DEVICE INTERFACE (EXCP)        52800000
                            00002  1556+DCBMRCTL EQU   DCBBIT6 -      CNTRL (BSAM, QSAM)                        52850000
                            00002  1557+DCBMRSTK EQU   DCBBIT6 -      SETL BY KEY (QISAM)                       52900000
                            00002  1558+DCBMRAWR EQU   DCBBIT6 -      ADD TYPE OF WRITE (BDAM) ---              52950000
                                   1559+*                             ALWAYS ZERO (BISAM) ---                   53000000
                                   1560+*                             RESERVED (BPAM, QTAM, BTAM)               53050000
                            00001  1561+DCBMR1WD EQU   DCBBIT7 -      ONE-WORD DEVICE INTERFACE (EXCP)          53100000
                            00001  1562+DCBMRSWA EQU   DCBBIT7 -      USER'S PROGRAM HAS PROVIDED A SEGMENT     53150000
                                   1563+*                             WORK AREA POOL (BSAM CREATE BDAM, BDAM)   53200000
                            00001  1564+DCBMRDMD EQU   DCBBIT7 -      DATA MODE (QSAM)                          53250000
                            00001  1565+DCBMRSTI EQU   DCBBIT7 -      SETL BY ID (QISAM) ---                    53300000
                                   1566+*                             ALWAYS ZERO (BISAM) ---                   53350000
                                   1567+*                             RESERVED (BPAM, QTAM, BTAM)               53400000

                                   1569+*********************************************************************** 53451000
                                   1570+*                       FOUNDATION AFTER OPEN                           53500000
                                   1571+*********************************************************************** 53501000

000034                      00028  1573+         ORG   IHADCB+40                                                53600000
000028                             1574+DCBTIOT  DS    H -            OFFSET FROM TIOT ORIGIN TO TIOELNGH FIELD 53650000
                                   1575+*                             IN TIOT ENTRY FOR DD STATEMENT ASSOCIATED 53700000
                                   1576+*                             WITH THIS DCB                             53750000
00002A                             1577+DCBMACRF DS    0BL2 -         SAME AS DCBMACR BEFORE OPEN               53800000
00002A                             1578+DCBMACF1 DS    BL1 -          FIRST BYTE OF DCBMACRF                    53850000
00002B                             1579+DCBMACF2 DS    BL1 -          SECOND BYTE OF DCBMACRF                   53900000
00002C                             1580+DCBDEBAD DS    0A -           ADDRESS OF ASSOCIATED DEB                 53950000
00002C                             1581+DCBIFLGS DS    BL1 -          SAME AS DCBIFLG BEFORE OPEN               54000000
                            000C0  1582+DCBIFEC  EQU   DCBBIT0+DCBBIT1 - ERROR CORRECTION INDICATOR             54050000
                            00030  1583+DCBIFPCT EQU   DCBBIT2+DCBBIT3 - PRINTER CARRIAGE TAPE PUNCH INDICATOR  54100000
                            0000C  1584+DCBIFIOE EQU   DCBBIT4+DCBBIT5 - IOS ERROR ROUTINE USE INDICATOR        54150000
                            00002  1585+DCBIFLDT EQU   DCBBIT6 -      3800 PRINTER LOST DATA INDICATOR @G38ESMH 54175000
00002D                             1586+DCBDEBA  DS    AL3 -          ADDRESS OF ASSOCIATED DEB                 54200000

000030                      00030  1588+         ORG   IHADCB+48                                                54350000
000030                             1589+DCBREAD  DS    0A -           ADDRESS OF READ MODULE                    54400000
000030                             1590+DCBWRITE DS    0A -           ADDRESS OF WRITE MODULE          @ZA11086 54450000
000030                             1591+DCBOFLG  DS    BL1            SAME AS DCBOFLGS BEFORE OPEN     @ZA11086 54460000
000031                             1592+DCBREADA DS    0AL3           ADDRESS OF READ MODULE           @ZA11086 54470000
000031                             1593+DCBWRITA DS    AL3            ADDRESS OF WRITE MODULE          @ZA11086 54480000

000034                      00030  1595+         ORG   IHADCB+48                                                54600000
000030                             1596+DCBGET   DS    0A -           ADDRESS OF GET MODULE                     54650000
000030                             1597+DCBPUT   DS    0A -           ADDRESS OF PUT MODULE            @ZA11086 54700000
000030                             1598+DCBOFLG1 DS    BL1            SAME AS DCBOFLGS BEFORE OPEN     @ZA14562 54710000
000031                             1599+DCBGETA  DS    0AL3           ADDRESS OF GET MODULE            @ZA11086 54720000
         FILEDUMP V1.0.0 - PRINT FILE DUMPS ****                                                               PAGE   29


  LOC  OBJECT CODE    ADDR1 ADDR2  STMT   SOURCE STATEMENT                                       ASM 0201 21.51 03/12/22

000031                             1600+DCBPUTA  DS    AL3            ADDRESS OF PUT MODULE            @ZA11086 54730000



                                   1604+*********************************************************************** 77701000
                                   1605+*                       QSAM-BSAM-BPAM COMMON INTERFACE                 77750000
                                   1606+*********************************************************************** 77751000

000034                      00034  1608+         ORG   IHADCB+52                                                77850000
000034                             1609+DCBGERR  DS    0A -           ADDRESS OF SYNCHRONIZING ROUTINE FOR GET  77950000
000034                             1610+DCBPERR  DS    0A -           ADDRESS OF SYNCHRONIZING ROUTINE FOR PUT  78000000
000034                             1611+DCBCHECK DS    0A -           ADDRESS OF CHECK MODULE                   78050000
000034                             1612+DCBOPTCD DS    BL1 -          OPTION CODES                              78150000
                            00080  1613+DCBOPTW  EQU   DCBBIT0 -      WRITE VALIDITY CHECK (DASD)               78500000
                                   1614+*                             (BSAM, BPAM, QSAM, ISAM, BDAM)            78550000
                            00040  1615+DCBOPTU  EQU   DCBBIT1 -      ALLOW DATA CHECK CAUSED BY INVALID        78600000
                                   1616+*                             CHARACTER (1403 PRINTER WITH UCS FEATURE) 78650000
                                   1617+*                             (BSAM, BPAM, QSAM)                        78700000
                                   1618+*                             MSS WINDOW PROCESSING REQUESTED  @ZA37313 78710000
                                   1619+*                             (BSAM, QSAM)                     @ZA37313 78720000
                            00020  1620+DCBOPTC  EQU   DCBBIT2 -      CHAINED SCHEDULING USING PCI              78750000
                                   1621+*                             (BSAM, BPAM, QSAM)                        78800000
                            00010  1622+DCBOPTH  EQU   DCBBIT3 -      1287/1288 OPTICAL READER - HOPPER EMPTY   78850000
                                   1623+*                             EXIT (BSAM, BPAM)                         78900000
                                   1624+*                             PDS STAGING ON MSS REQUEST(BPAM) @ZA36508 78920000
                            00010  1625+DCBOPTO  EQU   DCBBIT3 -      1285/1287 OPTICAL READER - ON-LINE        78950000
                                   1626+*                             CORRECTION (QSAM)                         79000000
                            00010  1627+DCBBCKPT EQU   DCBBIT3 -      CHANNEL-END APPENDAGE IS TO BYPASS DOS    79050000
                                   1628+*                             EMBEDDED CHECKPOINT RECORDS ON TAPE       79100000
                                   1629+*                             (BSAM, QSAM)                              79150000
                            00008  1630+DCBOPTQ  EQU   DCBBIT4 -      TRANSLATION TO OR FROM ASCII              79200000
                                   1631+*                             (BSAM, BPAM, QSAM)                        79250000
                            00004  1632+DCBOPTZ  EQU   DCBBIT5 -      MAGNETIC TAPE DEVICES - USE REDUCED ERROR 79300000
                                   1633+*                             RECOVERY PROCEDURE (EXCP, BSAM, BPAM,     79350000
                                   1634+*                             QSAM)                                     79400000
                            00004  1635+DCBSRCHD EQU   DCBBIT5 -      USE SEARCH DIRECT, INSTEAD OF SEARCH      79450000
                                   1636+*                             PREVIOUS, ON RECORD POSITION SENSING      79500000
                                   1637+*                             DEVICE  (EXCP, BSAM, BPAM, QSAM)          79550000
                            00002  1638+DCBOPTT  EQU   DCBBIT6 -      USER TOTALING (BSAM, QSAM)                79600000
                                   1639+*                                                                       79610000
                                   1640+*                                                                       79620000
                            00001  1641+DCBOPTJ  EQU   DCBBIT7        3800 PRINTER, OPTCD=J; (DYNAMIC  @Z40MSRZ 79630000
                                   1642+*                             SELECT OF TRANSLATE TABLES)      @Z40MSRZ 79640000
000035                             1643+DCBGERRA DS    0AL3 -         ADDRESS OF SYNCHRONIZING ROUTINE FOR GET  79700000
000035                             1644+DCBPERRA DS    0AL3 -         ADDRESS OF SYNCHRONIZING ROUTINE FOR PUT  79750000
000035                             1645+DCBCHCKA DS    AL3 -          ADDRESS OF CHECK MODULE                   79800000
000038                             1646+DCBSYNAD DS    0A -           ADDRESS OF USER-PROVIDED SYNAD ROUTINE    80050000
000038                             1647+DCBIOBL  DS    FL1 -          IOB LENGTH IN DOUBLE WORDS                80100000
000039                             1648+DCBSYNA  DS    AL3 -          ADDRESS OF USER-PROVIDED SYNAD ROUTINE    80150000
00003C                             1649+DCBFLAG1 DS    0BL1 -         TCAM APPLICATION PROGRAM FLAGS            80460000
                                   1650+*                             (BSAM, BPAM, QSAM)                        80470000
00003C                             1651+DCBCIND1 DS    BL1 -          CONDITION INDICATORS                      80500000
                            00080  1652+DCBCNTOV EQU   DCBBIT0 -      DIRECT ACCESS - TRACK OVERFLOW IN USE     80550000
                                   1653+*                             (BSAM, BPAM, QSAM)                        80600000
                                   1654+*                             2540 CARD PUNCH - DATA SET WAS OPENED BUT 80650000
         FILEDUMP V1.0.0 - PRINT FILE DUMPS ****                                                               PAGE   30


  LOC  OBJECT CODE    ADDR1 ADDR2  STMT   SOURCE STATEMENT                                       ASM 0201 21.51 03/12/22

                                   1655+*                             NO DATA WAS WRITTEN (QSAM)                80700000
                            00080  1656+DCBSTQCK EQU   DCBBIT0 -      STOP EQUAL QUICK WAS SPECIFIED FOR        80710000
                                   1657+*                             APPLICATION PROG. DCBS (TCAM)             80720000
                            00040  1658+DCBSTFLS EQU   DCBBIT1 -      STOP EQUAL FLUSH WAS SPECIFIED FOR        80730000
                                   1659+*                             APPLICATION PROG. DCBS (TCAM)             80740000
                            00040  1660+DCBCNSRD EQU   DCBBIT1 -      SEARCH DIRECT (BSAM, BPAM, QSAM)          80750000
                            00020  1661+DCBCNEVB EQU   DCBBIT2 -      END OF VOLUME - USED BY EOB ROUTINES      80800000
                                   1662+*                             (BSAM, BPAM, QSAM)                        80850000
                            00010  1663+DCBCNEVA EQU   DCBBIT3 -      END OF VOLUME - USED BY CHANNEL-END       80900000
                                   1664+*                             APPENDAGE ROUTINES (BSAM, BPAM, QSAM)     80950000
                            00004  1665+DCBCNBRM EQU   DCBBIT5 -      BLOCKED RECORD BIT MODIFIED (BSAM,BPAM,   81000000
                                   1666+*                             QSAM)                                     81050000
                            00001  1667+DCBCNEXB EQU   DCBBIT7 -      EXCHANGE BUFFERING SUPPORTED (QSAM)       81100000
00003D                             1668+DCBCIND2 DS    BL1 -          CONDITION INDICATORS                      81150000
                            00080  1669+DCBCNSTO EQU   DCBBIT0 -      PARTITIONED DATA SET - STOW HAS BEEN      81200000
                                   1670+*                             PERFORMED (BSAM, BPAM, QSAM)              81250000
                                   1671+*                             SEQUENTIAL DATA SET - UPDATE (BSAM, BPAM) 81300000
                            00040  1672+DCBCNWR0 EQU   DCBBIT1 -      DIRECT ORGANIZATION DATA SET - LAST I/O   81350000
                                   1673+*                             WAS A WRITE RECORD ZERO                   81400000
                                   1674+*                             (BSAM, BPAM, QSAM)                        81450000
                                   1675+*                             SEQUENTIAL DATA SET - UPDATE EOF IS       81500000
                                   1676+*                             INDICATED (BSAM, BPAM)                    81550000
                            00020  1677+DCBCNCLO EQU   DCBBIT2 -      CLOSE IN PROCESS (QSAM)                   81600000
                            00010  1678+DCBCNIOE EQU   DCBBIT3 -      PERMANENT I/O ERROR (BSAM, BPAM, QSAM)    81650000
                            00008  1679+DCBCNBFP EQU   DCBBIT4 -      OPEN ACQUIRED BUFFER POOL                 81700000
                                   1680+*                             (BSAM, BPAM, QSAM)                        81750000
                            00004  1681+DCBCNCHS EQU   DCBBIT5 -      CHAINED SCHEDULING BEING SUPPORTED        81800000
                                   1682+*                             (BSAM, BPAM, QSAM)                        81850000
                            00002  1683+DCBCNFEO EQU   DCBBIT6 -      FEOV BIT (BSAM, BPAM, QSAM)               81900000
                            00001  1684+DCBCNQSM EQU   DCBBIT7 -      ALWAYS ZERO (BSAM, BPAM)                  81950000
                                   1685+*                             THIS IS A QSAM DCB (QSAM)                 82000000
00003E                             1686+DCBBLKSI DS    H -            MAXIMUM BLOCK SIZE                        82100000
000040                             1687+DCBWCPO  DS    AL1 -          OFFSET OF WRITE CHANNEL PROGRAM FROM THE  82350000
                                   1688+*                             START OF IOB                              82400000
000041                             1689+DCBWCPL  DS    FL1 -          LENGTH OF WRITE CHANNEL PROGRAM           82450000
000042                             1690+DCBOFFSR DS    AL1 -          OFFSET OF READ CCW FROM BSAM/BPAM PREFIX  82500000
                                   1691+*                             OF IOB                                    82550000
000043                             1692+DCBOFFSW DS    AL1 -          OFFSET OF WRITE CCW FROM BSAM/BPAM PREFIX 82600000
                                   1693+*                             OF IOB                                    82650000
000044                             1694+DCBIOBA  DS    A -            FOR NORMAL SCHEDULING, ADDRESS OF QSAM OR 82700000
                                   1695+*                             BSAM/BPAM PREFIX OF IOB.  FOR CHAINED     82750000
                                   1696+*                             SCHEDULING, ADDRESS OF ICB.  FOR          82800000
                                   1697+*                             1419/1275, ADDRESS OF MAGNETIC INTERRUPT  82850000
                                   1698+*                             CONTROL BLOCK (MICB) CURRENTLY BEING      82900000
                                   1699+*                             PROCESSED BY READ ROUTINE.  FOR TSO       82950000
                                   1700+*                             TERMINAL DATA SET OPENED FOR INPUT AND    83000000
                                   1701+*                             FORMAT U, SIMULATED LOW-ORDER FOUR BYTES  83050000
                                   1702+*                             OF IOBCSW                                 83100000

000048                      00044  1704+         ORG   IHADCB+68                                                83160000
000044                             1705+DCBCICB  DS    0A -           SAME AS DCBCICBA BELOW                    83200000
000044                             1706+         DS    X -            DCBNCP  (BSAM,BPAM)                       83250000
000045                             1707+DCBCICBA DS    AL3 -          POINTER TO JES C.I.                       83300000
                                   1708+*                             CONTROL BLOCK (CICB)                      83350000
         FILEDUMP V1.0.0 - PRINT FILE DUMPS ****                                                               PAGE   31


  LOC  OBJECT CODE    ADDR1 ADDR2  STMT   SOURCE STATEMENT                                       ASM 0201 21.51 03/12/22

000048                      00050  1710+         ORG   IHADCB+80                                                83450000
000050                             1711+DCBDIRCT DS    0H -           NUMBER OF BYTES USED IN LAST DIRECTORY    83500000
                                   1712+*                             BLOCK (RANGE 0-254)  (BSAM, BPAM)         83550000
000050                             1713+DCBQSWS  DS    0BL1 -         FLAG BYTE                                 83600000
                            00004  1714+DCBPOPEN EQU   DCBBIT5 -      QSAM PARALLEL INPUT PROCESSING            83601000
000050                             1715+DCBUSASI DS    B -            FLAG BYTE FOR ASCII TAPES                 83650000
                            00040  1716+DCBBLBP  EQU   DCBBIT1 -      BLOCK PREFIX IS FOUR BYTE FIELD           83700000
                                   1717+*                             CONTAINING BLOCK LENGTH IN UNPACKED       83750000
                                   1718+*                             DECIMAL (SPECIFIED BY BUFFER=L).          83800000
                            00038  1719+DCBQADFS EQU   DCBBIT2+DCBBIT3+DCBBIT4 USED TO PERFORM SEQUENCE         83850000
                                   1720+*                             CHECKING WITH MULTIPLE FUNCTION SUPPORT   83900000
                                   1721+*                             FOR 3525 (BSAM, QSAM)                     83950000
                            00020  1722+DCBQADF1 EQU   DCBBIT2 -      FIRST BIT OF DCBQADFS                     84000000
                            00010  1723+DCBQADF2 EQU   DCBBIT3 -      SECOND BIT OF DCBQADFS                    84050000
                            00008  1724+DCBQADF3 EQU   DCBBIT4 -      THIRD BIT OF DCBQADFS                     84100000
                            00002  1725+DCB3525A EQU   DCBBIT6 -      DCB IS 3525 - ASSOCIATED DATA             84110000
                                   1726+*                             SETS EXIST                                84120000
                            00001  1727+DCBQSTRU EQU   DCBBIT7 -      TRUNC ENTRY POINT ENTERED (QSAM)          84150000
000051                             1728+DCBBUFOF DS    0FL1 -         BLOCK PREFIX LENGTH (0-99), SPECIFIED BY  84200000
                                   1729+*                             BUFOFF=N OR BUFOFF=L                      84250000
000051                             1730+DCBDIRCQ DS    FL1 -          NUMBER OF BYTES USED IN LAST DIRECTORY    84300000
                                   1731+*                             BLOCK (RANGE 0-254)  (QSAM)               84350000

                                   1733+*********************************************************************** 84451000
                                   1734+*                       BSAM-BPAM INTERFACE                             84500000
                                   1735+*********************************************************************** 84501000

000052                      00048  1737+         ORG   IHADCB+72                                                84600000
000048                             1738+DCBEOBR  DS    0A -           ADDRESS OF END-OF-BLOCK MODULE FOR READ   84650000
000048                             1739+DCBNCP   DS    FL1 -          NUMBER OF CHANNEL PROGRAMS.               84750000
                                   1740+*                             NUMBER OF READ OR WRITE REQUESTS WHICH    85000000
                                   1741+*                             MAY BE ISSUED PRIOR TO A CHECK, NUMBER    85050000
                                   1742+*                             OF IOB'S GENERATED.  (99 MAXIMUM)         85100000
000049                             1743+DCBEOBRA DS    AL3 -          ADDRESS OF END-OF-BLOCK MODULE FOR READ   85150000
00004C                             1744+DCBEOBW  DS    A -            ADDRESS OF END-OF-BLOCK MODULE FOR WRITE. 85200000
                                   1745+*                             FOR BSAM CREATE BDAM PROCESSING OF        85250000
                                   1746+*                             UNBLOCKED SPANNED RECORDS WITH BKTEK=R    85300000
                                   1747+*                             SPECIFIED, ADDRESS OF SEGMENT WORK AREA   85350000
                                   1748+*                             CONTROL BLOCK                             85400000
000050                             1749+         DS    H -            DCBDIRCT - NUMBER OF BYTES USED IN LAST   85450000
                                   1750+*                             DIRECTORY BLOCK  (RANGE 0-254)            85500000
000052                             1751+DCBLRECL DS    H -            LOGICAL RECORD LENGTH                     85600000
000054                             1752+DCBCNTRL DS    0A -           ADDRESS OF CNTRL MODULE                   85850000
000054                             1753+DCBNOTE  DS    0A -           ADDRESS OF NOTE/POINT MODULE              85900000
000054                             1754+DCBPOINT DS    A -            ADDRESS OF NOTE/POINT MODULE              85950000

                                   1756+*********************************************************************** 86051000
                                   1757+*                       QSAM INTERFACE                                  86100000
                                   1758+*********************************************************************** 86101000

000058                      00048  1760+         ORG   IHADCB+72                                                86650000
000048                             1761+DCBLCCW  DS    0A -           FOR EXCHANGE BUFFERING, ADDRESS OF LAST   86700000
                                   1762+*                             CCW IN LIST                               86750000
000048                             1763+DCBEOBAD DS    A -            FOR SIMPLE BUFFERING, ADDRESS OF LAST     86800000
                                   1764+*                             BYTE OF CURRENT BUFFER                    86850000
         FILEDUMP V1.0.0 - PRINT FILE DUMPS ****                                                               PAGE   32


  LOC  OBJECT CODE    ADDR1 ADDR2  STMT   SOURCE STATEMENT                                       ASM 0201 21.51 03/12/22

00004C                             1765+DCBCCCW  DS    0A -           FOR EXCHANGE BUFFERING, ADDRESS OF        86900000
                                   1766+*                             CURRENT OR NEXT CCW                       86950000
00004C                             1767+DCBRECAD DS    0A -           ADDRESS OF CURRENT OR NEXT LOGICAL RECORD 87000000
00004C                             1768+DCBRECBT DS    BL1 -          FLAG BYTE                                 87050000
                            000F0  1769+DCBRCREL EQU   DCBBIT0+DCBBIT1+DCBBIT2+DCBBIT3 RELSE MACRO HAS BEEN     87100000
                                   1770+*                             ISSUED (QSAM WITH SIMPLE BUFFERING)       87150000
                            00080  1771+DCBRCTRU EQU   DCBBIT0 -      TRUNC MACRO HAS BEEN ISSUED (QSAM LOCATE  87200000
                                   1772+*                             MODE)                                     87250000
                            00040  1773+DCBRCFGT EQU   DCBBIT1 -      FIRST GET AFTER OPEN (QSAM LOCATE MODE)   87300000
00004D                             1774+DCBRECA  DS    AL3 -          ADDRESS OF CURRENT OR NEXT LOGICAL RECORD 87350000
000050                             1775+         DS    B -            DCBQSWS - FLAG BYTE                       87400000
000051                             1776+         DS    FL1 -          DCBDIRCQ - NUMBER OF BYTES USED IN LAST   87450000
                                   1777+*                             DIRECTORY BLOCK (RANGE 0-254)             87500000
000052                             1778+         DS    H -            DCBLRECL - LOGICAL RECORD LENGTH          87750000
000054                             1779+         DS    0A -           DCBCNTRL - ADDRESS OF CNTRL MODULE        88000000
000054                             1780+DCBEROPT DS    BL1 -          ERROR OPTION                              88100000
                            00080  1781+DCBERACC EQU   DCBBIT0 -      ACCEPT PERMANENT ERROR                    88150000
                            00040  1782+DCBERSKP EQU   DCBBIT1 -      SKIP PERMANENT ERROR                      88200000
                            00020  1783+DCBERABE EQU   DCBBIT2 -      ABNORMAL END OF TASK                      88250000
000055                             1784+         DS    AL3 -          DCBCNTRA - ADDRESS OF CNTRL MODULE        88500000
000058                             1785+         DS    XL2 -          RESERVED                                  88600000
00005A                             1786+DCBPRECL DS    H -            FORMAT F RECORDS: BLOCK LENGTH            88601000
                                   1787+*                             FORMAT U RECORDS: MAXIMUM BLOCK LENGTH    88602000
                                   1788+*                             FORMAT V RECORDS:                         88603000
                                   1789+*                               UNSPANNED RECORDS: MAXIMUM BLOCK LENGTH 88604000
                                   1790+*                               SPANNED RECORDS:                        88605000
                                   1791+*                                 PUT, NOT DATA MODE:                   88606000
                                   1792+*                                   MAXIMUM BOLCK LENGTH                88607000
                                   1793+*                                 PUT, DATA MODE:                       88608000
                                   1794+*                                   DATA LENGTH                         88609000
                                   1795+*                                 GET:                                  88610000
                                   1796+*                                   SEGMENT CONTROL CODE OF PREVIOUS    88611000
                                   1797+*                                   SEGMENT                             88612000
00005C                             1798+DCBEOB   DS    A -            ADDRESS OF END OF BLOCK MODULE            88750000

000000                             1800          END   FILEDUMP
                                                  RELOCATION DICTIONARY                                        PAGE   33


POS.ID   REL.ID   FLAGS   ADDRESS                                                                ASM 0201 21.51 03/12/22

 0001     0001      08     0000B9
 0001     0001      08     000275
 0001     0001      08     0002A1
 0001     0001      08     000475
 0001     0001      08     000479
 0001     0001      08     00047D
 0001     0001      08     0004A5
 0001     0001      08     0004A9
 0001     0001      08     0004AD
 0001     0001      08     0004C5
 0001     0001      0C     000578
 0001     0001      0C     00057C
 0001     0001      0C     000584
 0001     0001      08     000589
 0001     0001      08     000A05
 0001     0002      1C     000B48
                                                  CROSS-REFERENCE                                              PAGE   34


SYMBOL    LEN   VALUE   DEFN    REFERENCES                                                       ASM 0201 21.51 03/12/22

ABORT16  00004 000004C0 00632  00312 00319 00360 00367
ASATST   00001 0000051A 00663  00661
BADDUMP  00001 000001E8 00361  00350 00352
BADSKIP  00001 00000158 00313  00302 00304
BLKTEST  00001 0000050A 00658  00654 00657
BYPASS   00001 00000338 00485  00482
DCBBIT0  00001 00000080 01001  01156 01172 01216 01234 01283 01292 01307 01350 01358 01370 01393 01420 01422 01423 01425
                               01448 01451 01471 01475 01490 01527 01582 01613 01652 01656 01669 01769 01771 01781
DCBBIT1  00001 00000040 01002  01157 01173 01235 01243 01283 01292 01309 01351 01359 01372 01394 01395 01404 01420 01422
                               01424 01425 01453 01471 01473 01475 01493 01494 01495 01530 01531 01582 01615 01658 01660
                               01672 01716 01769 01773 01782
DCBBIT2  00001 00000020 01003  01158 01174 01236 01245 01292 01310 01352 01360 01373 01374 01375 01394 01395 01399 01405
                               01420 01421 01426 01455 01476 01477 01498 01499 01500 01534 01535 01583 01620 01661 01677
                               01719 01722 01769 01783
DCBBIT3  00001 00000010 01004  01112 01159 01175 01250 01294 01311 01353 01373 01375 01376 01394 01407 01427 01458 01476
                               01479 01502 01503 01504 01538 01539 01583 01622 01625 01627 01663 01678 01719 01723 01769
DCBBIT4  00001 00000008 01005  01113 01176 01251 01297 01312 01361 01408 01428 01459 01481 01486 01487 01507 01508 01542
                               01543 01545 01546 01584 01630 01679 01719 01724
DCBBIT5  00001 00000004 01006  01115 01177 01253 01298 01312 01362 01409 01431 01432 01461 01481 01483 01484 01487 01511
                               01513 01514 01515 01549 01550 01551 01552 01584 01632 01635 01665 01681 01714
DCBBIT6  00001 00000002 01007  01117 01144 01160 01178 01255 01299 01315 01354 01410 01411 01414 01431 01433 01462 01518
                               01519 01520 01521 01555 01556 01557 01558 01585 01638 01683 01725
DCBBIT7  00001 00000001 01008  01119 01144 01161 01259 01301 01316 01355 01410 01412 01414 01435 01466 01523 01524 01561
                               01562 01564 01565 01641 01667 01684 01727
DCBBLKSI 00002 0000003E 01686  00409 00421 00669
DCBDDNAM 00008 00000028 01445  00401 00413
DCBFDAD  00008 00000005 01028  01031
DCBLRECL 00002 00000052 01751  00408 00420 00665
DCBRECBR 00001 00000010 01427  00660
DCBRECF  00001 00000080 01423  00448 00642
DCBRECFM 00001 00000024 01419  00410 00422 00448 00450 00490 00642 00644 00660
DCBRECV  00001 00000040 01424  00450 00490 00644
DCBSSID  00008 00000000 01271  01274
DCBWTOID 00004 00000000 01185  01202 01212
DEFAULTS 00001 00000238 00384  00285 00379
DEFAULT1 00001 00000248 00388  00386
DEFAULT2 00001 00000258 00392  00390
DTLBLKSI 00005 000008A0 00807  00672
DTLDDN   00008 0000087A 00800  00401 00413
DTLLN1   00002 00000875 00797  00676 00808
DTLLN1L  00001 00000030 00808  00797
DTLRECL  00005 00000892 00805  00668
DTLRF1   00001 00000889 00802  00653 00656
DTLRF2   00001 0000088A 00803  00659 00662
DUMPF    00001 000002F4 00466  00449 00451
DWORD    00008 00000550 00680  00328 00329 00377 00378 00497 00498 00666 00667 00668 00670 00671 00672
ENDDUMP  00001 000001FA 00368  00346 00348
ENDSKIP  00001 0000016A 00320  00298 00300
EOFIN    00001 00000448 00578  00879
ERREXIT  00001 00000490 00607  00457 00651
ERRLN1   00002 000008A5 00810  00454 00610 00648 00813
ERRLN1L  00001 00000027 00813  00810
ERRLN2   00002 000008CC 00815  00627 00818
ERRLN2L  00001 00000032 00818  00815
ERRLN3   00002 000008FE 00820  00309 00823
                                                  CROSS-REFERENCE                                              PAGE   35


SYMBOL    LEN   VALUE   DEFN    REFERENCES                                                       ASM 0201 21.51 03/12/22

ERRLN3L  00001 00000025 00823  00820
ERRLN4   00002 00000923 00825  00316 00828
ERRLN4L  00001 00000024 00828  00825
ERRLN5   00002 00000947 00830  00357 00833
ERRLN5L  00001 00000025 00833  00830
ERRLN6   00002 0000096C 00835  00364 00838
ERRLN6L  00001 00000024 00838  00835
FDUMP    00001 000003D4 00538  00536
FILEDUMP 00001 00000000 00212  01800
FIND1    00001 0000011E 00296  00306
FIND2    00001 000001AE 00344  00354
FIXIN    00001 000004FA 00652  00643
FMTCD    00001 0000058C 00704  00283 00522 00527 00550 00557 00698
FMTLN    00002 0000058E 00705  00539 00699
FMTLN1   00134 00000594 00707  00500 00501 00501 00501 00502 00505 00508 00509 00509 00509 00512 00547 00701
FMTLN2   00134 0000061A 00708  00554
FMTLN3   00134 000006A0 00709  00561
FMTOFS   00004 00000590 00706  00541 00703
FSHORT   00001 000003CC 00534  00568
FSTART   00001 000003CC 00533  00525 00530
FTRLN1   00002 00000990 00840  00581 00843
FTRLN1L  00001 0000001A 00843  00840
FTRLN2   00002 000009AA 00845  00589 00850
FTRLN2L  00001 0000001F 00850  00845
FTRLN3   00002 000009C9 00852  00574 00855
FTRLN3L  00001 0000001B 00855  00852
FTRRECS  00009 000009AF 00848  00585 00586
GETRECLN 00001 00000358 00494  00491
GMAINLN  00004 00000558 00681  00431 00468
GOTRECLN 00001 0000035C 00496  00493
HDRDUMP  00008 0000086D 00794  00376 00389 00391
HDRLN1   00002 000007B4 00777  00256 00259 00268 00781
HDRLN1L  00001 0000001D 00781  00777
HDRLN2   00002 00000837 00784  00273 00787
HDRLN2L  00001 00000005 00787  00784
HDRLN3   00002 0000083C 00789  00395 00795
HDRLN3L  00001 00000039 00795  00789
HDRPARM  00102 000007D1 00782  00252 00254
HDRSKIP  00008 00000851 00792  00327 00385 00387
IDS0001  00001 00000030 00221  00245
ID10001  00004 00000000 00214  00221 00240
ID20001  00008 00000005 00216  00215
ID30001  00002 00000078 00223  00215
ID40001  00001 00000078 00240  00214
IHADCB   00001 00000000 00984  00399 01069 01095 01125 01152 01184 01270 01332 01379 01444 01573 01588 01595 01608 01704
                               01710 01737 01760
INBLKSI  00002 0000056A 00686  00409
INDCB    00004 000009E4 00861  00400 00406 00447 00474 00598 00619
INLRECL  00002 00000568 00685  00408 00430 00492
INRECFM  00001 00000566 00684  00410
LN       32767 00000000 00977  00467 00475 00495 00520
LND      00001 00000000 00976  00438
MAXEXIT  00001 00000456 00584  00577
MAXHITS  00001 00000436 00571  00484
MAXRECS  00005 00000233 00382  00378 00481 00483
                                                  CROSS-REFERENCE                                              PAGE   36


SYMBOL    LEN   VALUE   DEFN    REFERENCES                                                       ASM 0201 21.51 03/12/22

MVCNUM   00006 00000228 00380  00326 00375
NEXTF    00001 00000306 00472  00480 00569
NODUMP   00001 00000238 00383  00339 00341
NOSKIP   00001 00000190 00331  00292
NOT1     00001 000003B8 00526  00523
NOT2     00001 000003C8 00531  00528
OUTBLKSI 00002 00000570 00689  00421
OUTDCB   00004 00000A44 00915  00412 00418 00504 00511 00546 00553 00560 00600 00621
OUTLRECL 00002 0000056E 00688  00420
OUTRECFM 00001 0000056C 00687  00422
PARMERR  00001 000004B2 00624  00278 00280 00282 00290
PRSKIP   00001 00000424 00564  00551 00558
PRTDCB   00001 000004D8 00641  00411 00423
RECCNT   00005 0000055C 00682  00478 00479 00488
RECHDR1  00008 00000726 00710  00502 00714
RECHDR1L 00001 0000001D 00714  00502
RECLEN   00005 0000073E 00713  00498 00499
RECNUM   00008 0000072E 00711  00488 00489
RECPRT   00005 00000561 00683  00483 00486 00585
R0       00001 00000000 00224  00323 00370
R1       00001 00000001 00225  00250 00276 00277 00284 00437 00542
R10      00001 0000000A 00234  00295 00306 00324 00325 00343 00354 00373 00374 00380 00411 00423 00679
R11      00001 0000000B 00235  00321 00332 00337 00399 00400 00412 00447
R12      00001 0000000C 00236  00248 00249
R14      00001 0000000E 00238  00544
R15      00001 0000000F 00239  00543 00544
R2       00001 00000002 00226  00253 00254 00257 00665 00666 00669 00670
R3       00001 00000003 00227  00254 00255 00256 00257 00258 00258 00259
R4       00001 00000004 00228  00467 00471 00520 00540 00565 00565
R5       00001 00000005 00229  00468 00492 00495 00497 00535 00537 00567
R6       00001 00000006 00230  00469 00471 00521 00541 00566 00566
R7       00001 00000007 00231  00470 00524 00529 00532 00535 00537 00539 00565 00566 00567
R8       00001 00000008 00232  00250 00251 00251 00252 00253 00276 00279 00281 00283 00289 00291 00293 00293 00294 00322
                               00332 00342 00369 00380
R9       00001 00000009 00233  00294 00297 00299 00301 00303 00305 00305 00321 00322 00323 00325 00326 00337 00338 00340
                               00342 00345 00347 00349 00351 00353 00353 00369 00370 00374 00375 00430 00431 00434 00437
                               00438
SKIPRECS 00005 0000022E 00381  00329 00479
SNAPRADR 00004 00000580 00700  00540
SNAPRFP  00004 00000578 00697  00542
SPACE    00001 00000574 00691  00469
SPACELN  00004 00000574 00690  00470
SYSPRINT 00004 00000754 00725  00264 00267 00272 00308 00315 00356 00363 00394 00453 00573 00580 00588 00596 00609 00617
                               00626 00634 00647 00675
TRYDUMP  00001 00000194 00336  00330
VARIN    00001 00000502 00655  00645
WORKNUM  00008 0000074C 00716  00324 00327 00328 00371 00372 00372 00373 00376 00377 00717
WORKNUML 00001 00000008 00717  00324 00372 00373
                                                  LITERAL CROSS-REFERENCE                                      PAGE   37


SYMBOL    LEN   VALUE   DEFN    REFERENCES                                                       ASM 0201 21.51 03/12/22

=CL8' '  00008 00000B30 00968  00385 00389
=CL8'NONE'
         00008 00000B38 00969  00387
=CL8'ALL'
         00008 00000B40 00970  00391
=V(SNAPFR)
         00004 00000B48 00971  00543
=H'1'    00002 00000B4C 00972  00277 00284
=P'1'    00001 00000B4E 00973  00478 00486
=P'0'    00001 00000B4F 00974  00481
                                                  ASSEMBLER DIAGNOSTICS AND STATISTICS                         PAGE   38


                                                                                                 ASM 0201 21.51 03/12/22

NO STATEMENTS FLAGGED IN THIS ASSEMBLY
HIGHEST SEVERITY WAS    0
OPTIONS FOR THIS ASSEMBLY
  ALIGN, ALOGIC, BUFSIZE(STD), DECK, ESD, FLAG(0), LINECOUNT(55), LIST, NOMCALL, YFLAG, WORKSIZE(2097152)
  NOMLOGIC, NONUMBER, OBJECT, NORENT, RLD, NOSTMT, NOLIBMAC, NOTERMINAL, NOTEST, XREF(SHORT)
  SYSPARM()
WORK FILE BUFFER SIZE/NUMBER = 8702/ 1
TOTAL RECORDS READ FROM SYSTEM INPUT        634
TOTAL RECORDS READ FROM SYSTEM LIBRARY     5665
TOTAL RECORDS PUNCHED                        50
TOTAL RECORDS PRINTED                      1822

 F64-LEVEL LINKAGE EDITOR OPTIONS SPECIFIED XREF,LET,LIST
          DEFAULT OPTION(S) USED -  SIZE=(98304,55296)



                                                CROSS REFERENCE TABLE


  CONTROL SECTION                       ENTRY

    NAME    ORIGIN  LENGTH                NAME   LOCATION     NAME   LOCATION     NAME   LOCATION     NAME   LOCATION
  FILEDUMP      00     B50
  SNAPFR  *    B50     4CA
                                        SNAPFRP      B58



  LOCATION  REFERS TO SYMBOL  IN CONTROL SECTION             LOCATION  REFERS TO SYMBOL  IN CONTROL SECTION
      B48            SNAPFR          SNAPFR
 ENTRY ADDRESS       00

 TOTAL LENGTH      1020
****FILEDUMP  DOES NOT EXIST BUT HAS BEEN ADDED TO DATA SET
AUTHORIZATION CODE IS         0.
                        HH        HH  EEEEEEEEEEEE  RRRRRRRRRRR    CCCCCCCCCC     00000000         11        AAAAAAAAAA
                       HH        HH  EEEEEEEEEEEE  RRRRRRRRRRRR  CCCCCCCCCCCC   0000000000       111       AAAAAAAAAAAA
                      HH        HH  EE            RR        RR  CC        CC  00      0000     1111       AA        AA
                     HH        HH  EE            RR        RR  CC            00     00 00       11       AA        AA
                    HH        HH  EE            RR        RR  CC            00    00  00       11       AA        AA
                   HHHHHHHHHHHH  EEEEEEEE      RRRRRRRRRRRR  CC            00   00   00       11       AAAAAAAAAAAA
                  HHHHHHHHHHHH  EEEEEEEE      RRRRRRRRRRR   CC            00  00    00       11       AAAAAAAAAAAA
                 HH        HH  EE            RR    RR      CC            00 00     00       11       AA        AA
                HH        HH  EE            RR     RR     CC            0000      00       11       AA        AA
               HH        HH  EE            RR      RR    CC        CC  000       00       11       AA        AA
              HH        HH  EEEEEEEEEEEE  RR       RR   CCCCCCCCCCCC   0000000000    1111111111   AA        AA
             HH        HH  EEEEEEEEEEEE  RR        RR   CCCCCCCCCC     00000000     1111111111   AA        AA



                    JJJJJJJJJJ       11         00000000     3333333333    2222222222                  AAAAAAAAAA
                    JJJJJJJJJJ      111        0000000000   333333333333  222222222222                AAAAAAAAAAAA
                        JJ         1111       00      0000  33        33  22        22                AA        AA
                        JJ           11       00     00 00            33            22                AA        AA
                        JJ           11       00    00  00            33            22                AA        AA
                        JJ           11       00   00   00         3333            22                 AAAAAAAAAAAA
                        JJ           11       00  00    00         3333          22                   AAAAAAAAAAAA
                        JJ           11       00 00     00            33       22                     AA        AA
                  JJ    JJ           11       0000      00            33     22                       AA        AA
                  JJ    JJ           11       000       00  33        33   22                         AA        AA
                  JJJJJJJJ       1111111111    0000000000   333333333333  222222222222                AA        AA
                   JJJJJJ        1111111111     00000000     3333333333   222222222222                AA        AA


****A   END   JOB 1032  HERC01A   ME                    ROOM        9.51.31 PM 12 MAR 22  PRINTER1  SYS TK4-  JOB 1032   END   A****
****A   END   JOB 1032  HERC01A   ME                    ROOM        9.51.31 PM 12 MAR 22  PRINTER1  SYS TK4-  JOB 1032   END   A****
****A   END   JOB 1032  HERC01A   ME                    ROOM        9.51.31 PM 12 MAR 22  PRINTER1  SYS TK4-  JOB 1032   END   A****
****A   END   JOB 1032  HERC01A   ME                    ROOM        9.51.31 PM 12 MAR 22  PRINTER1  SYS TK4-  JOB 1032   END   A****
